; ModuleID = 'C:/Users/jackh/Downloads/Matrix_Lab4/reshape/reshape/hls/.autopilot/db/a.g.ld.5.gdce.bc'
source_filename = "llvm-link"
target datalayout = "e-m:e-i64:64-i128:128-i256:256-i512:512-i1024:1024-i2048:2048-i4096:4096-n8:16:32:64-S128-v16:16-v24:32-v32:32-v48:64-v96:128-v192:256-v256:256-v512:512-v1024:1024"
target triple = "fpga64-xilinx-none"

; Function Attrs: inaccessiblememonly nounwind willreturn
declare void @llvm.sideeffect() #0

; Function Attrs: inaccessiblemem_or_argmemonly noinline willreturn
define void @apatb_matrix_mult_ir([2 x i32]* noalias nocapture nonnull readonly "fpga.decayed.dim.hint"="2" %A, [2 x i32]* noalias nocapture nonnull readonly "fpga.decayed.dim.hint"="2" %B, [2 x i32]* noalias nocapture nonnull "fpga.decayed.dim.hint"="2" %AB) local_unnamed_addr #1 {
entry:
  %0 = bitcast [2 x i32]* %A to [2 x [2 x i32]]*
  %A_copy1 = alloca [2 x i64], align 512
  %1 = getelementptr [2 x i64], [2 x i64]* %A_copy1, i64 0, i64 0
  %2 = bitcast [2 x i32]* %B to [2 x [2 x i32]]*
  %B_copy2 = alloca [2 x i64], align 512
  %3 = bitcast [2 x i32]* %AB to [2 x [2 x i32]]*
  %AB_copy = alloca [2 x [2 x i32]], align 512
  call void @copy_in([2 x [2 x i32]]* nonnull %0, [2 x i64]* nonnull align 512 %A_copy1, [2 x [2 x i32]]* nonnull %2, [2 x i64]* nonnull align 512 %B_copy2, [2 x [2 x i32]]* nonnull %3, [2 x [2 x i32]]* nonnull align 512 %AB_copy)
  call void @llvm.sideeffect() #7 [ "xlx_array_reshape"(i64* %1, i32 998, i32 1, i32 0) ], !dbg !5
  call void @llvm.sideeffect() #7 [ "xlx_array_reshape"([2 x i64]* %B_copy2, i32 998, i32 1, i32 0) ], !dbg !1977
  call void @apatb_matrix_mult_hw([2 x i64]* %A_copy1, [2 x i64]* %B_copy2, [2 x [2 x i32]]* %AB_copy)
  call void @copy_back([2 x [2 x i32]]* %0, [2 x i64]* %A_copy1, [2 x [2 x i32]]* %2, [2 x i64]* %B_copy2, [2 x [2 x i32]]* %3, [2 x [2 x i32]]* %AB_copy)
  ret void
}

; Function Attrs: argmemonly noinline norecurse willreturn
define internal fastcc void @onebyonecpy_hls.p0a2a2i32([2 x [2 x i32]]* noalias align 512 "orig.arg.no"="0" %dst, [2 x [2 x i32]]* noalias readonly "orig.arg.no"="1" %src) unnamed_addr #2 {
entry:
  %0 = icmp eq [2 x [2 x i32]]* %dst, null
  %1 = icmp eq [2 x [2 x i32]]* %src, null
  %2 = or i1 %0, %1
  br i1 %2, label %ret, label %copy

copy:                                             ; preds = %entry
  call void @arraycpy_hls.p0a2a2i32([2 x [2 x i32]]* nonnull %dst, [2 x [2 x i32]]* nonnull %src, i64 2)
  br label %ret

ret:                                              ; preds = %copy, %entry
  ret void
}

; Function Attrs: argmemonly noinline norecurse willreturn
define void @arraycpy_hls.p0a2a2i32([2 x [2 x i32]]* "orig.arg.no"="0" %dst, [2 x [2 x i32]]* readonly "orig.arg.no"="1" %src, i64 "orig.arg.no"="2" %num) local_unnamed_addr #3 {
entry:
  %0 = icmp eq [2 x [2 x i32]]* %src, null
  %1 = icmp eq [2 x [2 x i32]]* %dst, null
  %2 = or i1 %1, %0
  br i1 %2, label %ret, label %copy

copy:                                             ; preds = %entry
  %for.loop.cond1 = icmp sgt i64 %num, 0
  br i1 %for.loop.cond1, label %for.loop.lr.ph, label %copy.split

for.loop.lr.ph:                                   ; preds = %copy
  br label %for.loop

for.loop:                                         ; preds = %for.loop, %for.loop.lr.ph
  %for.loop.idx2 = phi i64 [ 0, %for.loop.lr.ph ], [ %for.loop.idx.next, %for.loop ]
  %dst.addr = getelementptr [2 x [2 x i32]], [2 x [2 x i32]]* %dst, i64 0, i64 %for.loop.idx2
  %src.addr = getelementptr [2 x [2 x i32]], [2 x [2 x i32]]* %src, i64 0, i64 %for.loop.idx2
  call void @arraycpy_hls.p0a2i32([2 x i32]* %dst.addr, [2 x i32]* %src.addr, i64 2)
  %for.loop.idx.next = add nuw nsw i64 %for.loop.idx2, 1
  %exitcond = icmp ne i64 %for.loop.idx.next, %num
  br i1 %exitcond, label %for.loop, label %copy.split

copy.split:                                       ; preds = %for.loop, %copy
  br label %ret

ret:                                              ; preds = %copy.split, %entry
  ret void
}

; Function Attrs: argmemonly noinline norecurse willreturn
define void @arraycpy_hls.p0a2i32([2 x i32]* "orig.arg.no"="0" %dst, [2 x i32]* readonly "orig.arg.no"="1" %src, i64 "orig.arg.no"="2" %num) local_unnamed_addr #3 {
entry:
  %0 = icmp eq [2 x i32]* %src, null
  %1 = icmp eq [2 x i32]* %dst, null
  %2 = or i1 %1, %0
  br i1 %2, label %ret, label %copy

copy:                                             ; preds = %entry
  %for.loop.cond1 = icmp sgt i64 %num, 0
  br i1 %for.loop.cond1, label %for.loop.lr.ph, label %copy.split

for.loop.lr.ph:                                   ; preds = %copy
  br label %for.loop

for.loop:                                         ; preds = %for.loop, %for.loop.lr.ph
  %for.loop.idx2 = phi i64 [ 0, %for.loop.lr.ph ], [ %for.loop.idx.next, %for.loop ]
  %dst.addr = getelementptr [2 x i32], [2 x i32]* %dst, i64 0, i64 %for.loop.idx2
  %src.addr = getelementptr [2 x i32], [2 x i32]* %src, i64 0, i64 %for.loop.idx2
  %3 = load i32, i32* %src.addr, align 4
  store i32 %3, i32* %dst.addr, align 4
  %for.loop.idx.next = add nuw nsw i64 %for.loop.idx2, 1
  %exitcond = icmp ne i64 %for.loop.idx.next, %num
  br i1 %exitcond, label %for.loop, label %copy.split

copy.split:                                       ; preds = %for.loop, %copy
  br label %ret

ret:                                              ; preds = %copy.split, %entry
  ret void
}

; Function Attrs: argmemonly noinline norecurse willreturn
define void @arraycpy_hls.p0a2i32.5.6(i64* "orig.arg.no"="0" %dst, i64 %dst_shift, [2 x i32]* readonly "orig.arg.no"="1" %src, i64 "orig.arg.no"="2" %num) #3 {
entry:
  %0 = icmp eq [2 x i32]* %src, null
  %1 = icmp eq i64* %dst, null
  %2 = or i1 %1, %0
  br i1 %2, label %ret, label %copy

copy:                                             ; preds = %entry
  %for.loop.cond1 = icmp sgt i64 %num, 0
  br i1 %for.loop.cond1, label %for.loop.lr.ph, label %copy.split

for.loop.lr.ph:                                   ; preds = %copy
  br label %for.loop

for.loop:                                         ; preds = %for.loop, %for.loop.lr.ph
  %for.loop.idx2 = phi i64 [ 0, %for.loop.lr.ph ], [ %for.loop.idx.next, %for.loop ]
  %3 = mul i64 32, %for.loop.idx2
  %4 = add i64 %dst_shift, %3
  %src.addr = getelementptr [2 x i32], [2 x i32]* %src, i64 0, i64 %for.loop.idx2
  %5 = load i32, i32* %src.addr, align 4
  %6 = load i64, i64* %dst, align 8
  %7 = shl i64 4294967295, %4
  %8 = zext i32 %5 to i64
  %9 = shl i64 %8, %4
  %thr.xor1 = xor i64 %7, -1
  %thr.and2 = and i64 %6, %thr.xor1
  %thr.or3 = or i64 %9, %thr.and2
  store i64 %thr.or3, i64* %dst, align 8
  %for.loop.idx.next = add nuw nsw i64 %for.loop.idx2, 1
  %exitcond = icmp ne i64 %for.loop.idx.next, %num
  br i1 %exitcond, label %for.loop, label %copy.split

copy.split:                                       ; preds = %for.loop, %copy
  br label %ret

ret:                                              ; preds = %copy.split, %entry
  ret void
}

; Function Attrs: argmemonly noinline norecurse willreturn
define void @arraycpy_hls.p0a2a2i32.4.7([2 x i64]* "orig.arg.no"="0" %dst, i64 %dst_shift, [2 x [2 x i32]]* readonly "orig.arg.no"="1" %src, i64 "orig.arg.no"="2" %num) #3 {
entry:
  %0 = icmp eq [2 x [2 x i32]]* %src, null
  %1 = icmp eq [2 x i64]* %dst, null
  %2 = or i1 %1, %0
  br i1 %2, label %ret, label %copy

copy:                                             ; preds = %entry
  %for.loop.cond1 = icmp sgt i64 %num, 0
  br i1 %for.loop.cond1, label %for.loop.lr.ph, label %copy.split

for.loop.lr.ph:                                   ; preds = %copy
  br label %for.loop

for.loop:                                         ; preds = %for.loop, %for.loop.lr.ph
  %for.loop.idx2 = phi i64 [ 0, %for.loop.lr.ph ], [ %for.loop.idx.next, %for.loop ]
  %dst.addr1 = getelementptr [2 x i64], [2 x i64]* %dst, i64 0, i64 %for.loop.idx2
  %src.addr = getelementptr [2 x [2 x i32]], [2 x [2 x i32]]* %src, i64 0, i64 %for.loop.idx2
  call void @arraycpy_hls.p0a2i32.5.6(i64* %dst.addr1, i64 %dst_shift, [2 x i32]* %src.addr, i64 2)
  %for.loop.idx.next = add nuw nsw i64 %for.loop.idx2, 1
  %exitcond = icmp ne i64 %for.loop.idx.next, %num
  br i1 %exitcond, label %for.loop, label %copy.split

copy.split:                                       ; preds = %for.loop, %copy
  br label %ret

ret:                                              ; preds = %copy.split, %entry
  ret void
}

; Function Attrs: argmemonly noinline norecurse willreturn
define internal void @onebyonecpy_hls.p0a2a2i32.3.8([2 x i64]* noalias align 512 "orig.arg.no"="0" %dst, [2 x [2 x i32]]* noalias readonly "orig.arg.no"="1" %src) #2 {
entry:
  %0 = icmp eq [2 x i64]* %dst, null
  %1 = icmp eq [2 x [2 x i32]]* %src, null
  %2 = or i1 %0, %1
  br i1 %2, label %ret, label %copy

copy:                                             ; preds = %entry
  call void @arraycpy_hls.p0a2a2i32.4.7([2 x i64]* nonnull %dst, i64 0, [2 x [2 x i32]]* nonnull %src, i64 2)
  br label %ret

ret:                                              ; preds = %copy, %entry
  ret void
}

; Function Attrs: argmemonly noinline norecurse willreturn
define void @arraycpy_hls.p0a2i32.11.12([2 x i64]* "orig.arg.no"="0" %dst, i64 %dst_shift, [2 x i32]* readonly "orig.arg.no"="1" %src, i64 "orig.arg.no"="2" %num) #3 {
entry:
  %0 = icmp eq [2 x i32]* %src, null
  %1 = icmp eq [2 x i64]* %dst, null
  %2 = or i1 %1, %0
  br i1 %2, label %ret, label %copy

copy:                                             ; preds = %entry
  %for.loop.cond1 = icmp sgt i64 %num, 0
  br i1 %for.loop.cond1, label %for.loop.lr.ph, label %copy.split

for.loop.lr.ph:                                   ; preds = %copy
  %3 = shl i64 4294967295, %dst_shift
  %4 = xor i64 %3, -1
  br label %for.loop

for.loop:                                         ; preds = %for.loop, %for.loop.lr.ph
  %for.loop.idx2 = phi i64 [ 0, %for.loop.lr.ph ], [ %for.loop.idx.next, %for.loop ]
  %dst.addr1 = getelementptr [2 x i64], [2 x i64]* %dst, i64 0, i64 %for.loop.idx2
  %src.addr = getelementptr [2 x i32], [2 x i32]* %src, i64 0, i64 %for.loop.idx2
  %5 = load i32, i32* %src.addr, align 4
  %6 = load i64, i64* %dst.addr1, align 8
  %7 = zext i32 %5 to i64
  %8 = shl i64 %7, %dst_shift
  %9 = and i64 %6, %4
  %10 = or i64 %9, %8
  store i64 %10, i64* %dst.addr1, align 8
  %for.loop.idx.next = add nuw nsw i64 %for.loop.idx2, 1
  %exitcond = icmp ne i64 %for.loop.idx.next, %num
  br i1 %exitcond, label %for.loop, label %copy.split

copy.split:                                       ; preds = %for.loop, %copy
  br label %ret

ret:                                              ; preds = %copy.split, %entry
  ret void
}

; Function Attrs: argmemonly noinline norecurse willreturn
define void @arraycpy_hls.p0a2a2i32.10.13([2 x i64]* "orig.arg.no"="0" %dst, i64 %dst_shift, [2 x [2 x i32]]* readonly "orig.arg.no"="1" %src, i64 "orig.arg.no"="2" %num) #3 {
entry:
  %0 = icmp eq [2 x [2 x i32]]* %src, null
  %1 = icmp eq [2 x i64]* %dst, null
  %2 = or i1 %1, %0
  br i1 %2, label %ret, label %copy

copy:                                             ; preds = %entry
  %for.loop.cond1 = icmp sgt i64 %num, 0
  br i1 %for.loop.cond1, label %for.loop.lr.ph, label %copy.split

for.loop.lr.ph:                                   ; preds = %copy
  br label %for.loop

for.loop:                                         ; preds = %for.loop, %for.loop.lr.ph
  %for.loop.idx2 = phi i64 [ 0, %for.loop.lr.ph ], [ %for.loop.idx.next, %for.loop ]
  %3 = mul i64 32, %for.loop.idx2
  %4 = add i64 %dst_shift, %3
  %src.addr = getelementptr [2 x [2 x i32]], [2 x [2 x i32]]* %src, i64 0, i64 %for.loop.idx2
  call void @arraycpy_hls.p0a2i32.11.12([2 x i64]* %dst, i64 %4, [2 x i32]* %src.addr, i64 2)
  %for.loop.idx.next = add nuw nsw i64 %for.loop.idx2, 1
  %exitcond = icmp ne i64 %for.loop.idx.next, %num
  br i1 %exitcond, label %for.loop, label %copy.split

copy.split:                                       ; preds = %for.loop, %copy
  br label %ret

ret:                                              ; preds = %copy.split, %entry
  ret void
}

; Function Attrs: argmemonly noinline norecurse willreturn
define internal void @onebyonecpy_hls.p0a2a2i32.9.14([2 x i64]* noalias align 512 "orig.arg.no"="0" %dst, [2 x [2 x i32]]* noalias readonly "orig.arg.no"="1" %src) #2 {
entry:
  %0 = icmp eq [2 x i64]* %dst, null
  %1 = icmp eq [2 x [2 x i32]]* %src, null
  %2 = or i1 %0, %1
  br i1 %2, label %ret, label %copy

copy:                                             ; preds = %entry
  call void @arraycpy_hls.p0a2a2i32.10.13([2 x i64]* nonnull %dst, i64 0, [2 x [2 x i32]]* nonnull %src, i64 2)
  br label %ret

ret:                                              ; preds = %copy, %entry
  ret void
}

; Function Attrs: argmemonly noinline norecurse willreturn
define internal void @copy_in([2 x [2 x i32]]* noalias readonly "orig.arg.no"="0", [2 x i64]* noalias align 512 "orig.arg.no"="1", [2 x [2 x i32]]* noalias readonly "orig.arg.no"="2", [2 x i64]* noalias align 512 "orig.arg.no"="3", [2 x [2 x i32]]* noalias readonly "orig.arg.no"="4", [2 x [2 x i32]]* noalias align 512 "orig.arg.no"="5") #4 {
entry:
  call void @onebyonecpy_hls.p0a2a2i32.3.8([2 x i64]* align 512 %1, [2 x [2 x i32]]* %0)
  call void @onebyonecpy_hls.p0a2a2i32.9.14([2 x i64]* align 512 %3, [2 x [2 x i32]]* %2)
  call fastcc void @onebyonecpy_hls.p0a2a2i32([2 x [2 x i32]]* align 512 %5, [2 x [2 x i32]]* %4)
  ret void
}

; Function Attrs: argmemonly noinline norecurse willreturn
define void @arraycpy_hls.p0a2i32.21.22([2 x i32]* "orig.arg.no"="0" %dst, i64* readonly "orig.arg.no"="1" %src, i64 %src_shift, i64 "orig.arg.no"="2" %num) #3 {
entry:
  %0 = icmp eq i64* %src, null
  %1 = icmp eq [2 x i32]* %dst, null
  %2 = or i1 %1, %0
  br i1 %2, label %ret, label %copy

copy:                                             ; preds = %entry
  %for.loop.cond1 = icmp sgt i64 %num, 0
  br i1 %for.loop.cond1, label %for.loop.lr.ph, label %copy.split

for.loop.lr.ph:                                   ; preds = %copy
  br label %for.loop

for.loop:                                         ; preds = %for.loop, %for.loop.lr.ph
  %for.loop.idx2 = phi i64 [ 0, %for.loop.lr.ph ], [ %for.loop.idx.next, %for.loop ]
  %dst.addr = getelementptr [2 x i32], [2 x i32]* %dst, i64 0, i64 %for.loop.idx2
  %3 = mul i64 32, %for.loop.idx2
  %4 = add i64 %src_shift, %3
  %5 = load i64, i64* %src, align 8
  %6 = lshr i64 %5, %4
  %7 = trunc i64 %6 to i32
  store i32 %7, i32* %dst.addr, align 4
  %for.loop.idx.next = add nuw nsw i64 %for.loop.idx2, 1
  %exitcond = icmp ne i64 %for.loop.idx.next, %num
  br i1 %exitcond, label %for.loop, label %copy.split

copy.split:                                       ; preds = %for.loop, %copy
  br label %ret

ret:                                              ; preds = %copy.split, %entry
  ret void
}

; Function Attrs: argmemonly noinline norecurse willreturn
define void @arraycpy_hls.p0a2a2i32.20.23([2 x [2 x i32]]* "orig.arg.no"="0" %dst, [2 x i64]* readonly "orig.arg.no"="1" %src, i64 %src_shift, i64 "orig.arg.no"="2" %num) #3 {
entry:
  %0 = icmp eq [2 x i64]* %src, null
  %1 = icmp eq [2 x [2 x i32]]* %dst, null
  %2 = or i1 %1, %0
  br i1 %2, label %ret, label %copy

copy:                                             ; preds = %entry
  %for.loop.cond1 = icmp sgt i64 %num, 0
  br i1 %for.loop.cond1, label %for.loop.lr.ph, label %copy.split

for.loop.lr.ph:                                   ; preds = %copy
  br label %for.loop

for.loop:                                         ; preds = %for.loop, %for.loop.lr.ph
  %for.loop.idx2 = phi i64 [ 0, %for.loop.lr.ph ], [ %for.loop.idx.next, %for.loop ]
  %dst.addr = getelementptr [2 x [2 x i32]], [2 x [2 x i32]]* %dst, i64 0, i64 %for.loop.idx2
  %src.addr1 = getelementptr [2 x i64], [2 x i64]* %src, i64 0, i64 %for.loop.idx2
  call void @arraycpy_hls.p0a2i32.21.22([2 x i32]* %dst.addr, i64* %src.addr1, i64 %src_shift, i64 2)
  %for.loop.idx.next = add nuw nsw i64 %for.loop.idx2, 1
  %exitcond = icmp ne i64 %for.loop.idx.next, %num
  br i1 %exitcond, label %for.loop, label %copy.split

copy.split:                                       ; preds = %for.loop, %copy
  br label %ret

ret:                                              ; preds = %copy.split, %entry
  ret void
}

; Function Attrs: argmemonly noinline norecurse willreturn
define internal void @onebyonecpy_hls.p0a2a2i32.19.24([2 x [2 x i32]]* noalias "orig.arg.no"="0" %dst, [2 x i64]* noalias readonly align 512 "orig.arg.no"="1" %src) #2 {
entry:
  %0 = icmp eq [2 x [2 x i32]]* %dst, null
  %1 = icmp eq [2 x i64]* %src, null
  %2 = or i1 %0, %1
  br i1 %2, label %ret, label %copy

copy:                                             ; preds = %entry
  call void @arraycpy_hls.p0a2a2i32.20.23([2 x [2 x i32]]* nonnull %dst, [2 x i64]* nonnull %src, i64 0, i64 2)
  br label %ret

ret:                                              ; preds = %copy, %entry
  ret void
}

; Function Attrs: argmemonly noinline norecurse willreturn
define void @arraycpy_hls.p0a2i32.27.28([2 x i32]* "orig.arg.no"="0" %dst, [2 x i64]* readonly "orig.arg.no"="1" %src, i64 %src_shift, i64 "orig.arg.no"="2" %num) #3 {
entry:
  %0 = icmp eq [2 x i64]* %src, null
  %1 = icmp eq [2 x i32]* %dst, null
  %2 = or i1 %1, %0
  br i1 %2, label %ret, label %copy

copy:                                             ; preds = %entry
  %for.loop.cond1 = icmp sgt i64 %num, 0
  br i1 %for.loop.cond1, label %for.loop.lr.ph, label %copy.split

for.loop.lr.ph:                                   ; preds = %copy
  br label %for.loop

for.loop:                                         ; preds = %for.loop, %for.loop.lr.ph
  %for.loop.idx2 = phi i64 [ 0, %for.loop.lr.ph ], [ %for.loop.idx.next, %for.loop ]
  %dst.addr = getelementptr [2 x i32], [2 x i32]* %dst, i64 0, i64 %for.loop.idx2
  %src.addr1 = getelementptr [2 x i64], [2 x i64]* %src, i64 0, i64 %for.loop.idx2
  %3 = load i64, i64* %src.addr1, align 8
  %4 = lshr i64 %3, %src_shift
  %5 = trunc i64 %4 to i32
  store i32 %5, i32* %dst.addr, align 4
  %for.loop.idx.next = add nuw nsw i64 %for.loop.idx2, 1
  %exitcond = icmp ne i64 %for.loop.idx.next, %num
  br i1 %exitcond, label %for.loop, label %copy.split

copy.split:                                       ; preds = %for.loop, %copy
  br label %ret

ret:                                              ; preds = %copy.split, %entry
  ret void
}

; Function Attrs: argmemonly noinline norecurse willreturn
define void @arraycpy_hls.p0a2a2i32.26.29([2 x [2 x i32]]* "orig.arg.no"="0" %dst, [2 x i64]* readonly "orig.arg.no"="1" %src, i64 %src_shift, i64 "orig.arg.no"="2" %num) #3 {
entry:
  %0 = icmp eq [2 x i64]* %src, null
  %1 = icmp eq [2 x [2 x i32]]* %dst, null
  %2 = or i1 %1, %0
  br i1 %2, label %ret, label %copy

copy:                                             ; preds = %entry
  %for.loop.cond1 = icmp sgt i64 %num, 0
  br i1 %for.loop.cond1, label %for.loop.lr.ph, label %copy.split

for.loop.lr.ph:                                   ; preds = %copy
  br label %for.loop

for.loop:                                         ; preds = %for.loop, %for.loop.lr.ph
  %for.loop.idx2 = phi i64 [ 0, %for.loop.lr.ph ], [ %for.loop.idx.next, %for.loop ]
  %dst.addr = getelementptr [2 x [2 x i32]], [2 x [2 x i32]]* %dst, i64 0, i64 %for.loop.idx2
  %3 = mul i64 32, %for.loop.idx2
  %4 = add i64 %src_shift, %3
  call void @arraycpy_hls.p0a2i32.27.28([2 x i32]* %dst.addr, [2 x i64]* %src, i64 %4, i64 2)
  %for.loop.idx.next = add nuw nsw i64 %for.loop.idx2, 1
  %exitcond = icmp ne i64 %for.loop.idx.next, %num
  br i1 %exitcond, label %for.loop, label %copy.split

copy.split:                                       ; preds = %for.loop, %copy
  br label %ret

ret:                                              ; preds = %copy.split, %entry
  ret void
}

; Function Attrs: argmemonly noinline norecurse willreturn
define internal void @onebyonecpy_hls.p0a2a2i32.25.30([2 x [2 x i32]]* noalias "orig.arg.no"="0" %dst, [2 x i64]* noalias readonly align 512 "orig.arg.no"="1" %src) #2 {
entry:
  %0 = icmp eq [2 x [2 x i32]]* %dst, null
  %1 = icmp eq [2 x i64]* %src, null
  %2 = or i1 %0, %1
  br i1 %2, label %ret, label %copy

copy:                                             ; preds = %entry
  call void @arraycpy_hls.p0a2a2i32.26.29([2 x [2 x i32]]* nonnull %dst, [2 x i64]* nonnull %src, i64 0, i64 2)
  br label %ret

ret:                                              ; preds = %copy, %entry
  ret void
}

; Function Attrs: argmemonly noinline norecurse willreturn
define internal void @copy_out([2 x [2 x i32]]* noalias "orig.arg.no"="0", [2 x i64]* noalias readonly align 512 "orig.arg.no"="1", [2 x [2 x i32]]* noalias "orig.arg.no"="2", [2 x i64]* noalias readonly align 512 "orig.arg.no"="3", [2 x [2 x i32]]* noalias "orig.arg.no"="4", [2 x [2 x i32]]* noalias readonly align 512 "orig.arg.no"="5") #5 {
entry:
  call void @onebyonecpy_hls.p0a2a2i32.19.24([2 x [2 x i32]]* %0, [2 x i64]* align 512 %1)
  call void @onebyonecpy_hls.p0a2a2i32.25.30([2 x [2 x i32]]* %2, [2 x i64]* align 512 %3)
  call fastcc void @onebyonecpy_hls.p0a2a2i32([2 x [2 x i32]]* %4, [2 x [2 x i32]]* align 512 %5)
  ret void
}

declare i8* @malloc(i64)

declare void @free(i8*)

declare void @apatb_matrix_mult_hw([2 x i64]*, [2 x i64]*, [2 x [2 x i32]]*)

; Function Attrs: argmemonly noinline norecurse willreturn
define internal void @copy_back([2 x [2 x i32]]* noalias "orig.arg.no"="0", [2 x i64]* noalias readonly align 512 "orig.arg.no"="1", [2 x [2 x i32]]* noalias "orig.arg.no"="2", [2 x i64]* noalias readonly align 512 "orig.arg.no"="3", [2 x [2 x i32]]* noalias "orig.arg.no"="4", [2 x [2 x i32]]* noalias readonly align 512 "orig.arg.no"="5") #5 {
entry:
  call fastcc void @onebyonecpy_hls.p0a2a2i32([2 x [2 x i32]]* %4, [2 x [2 x i32]]* align 512 %5)
  ret void
}

declare void @matrix_mult_hw_stub([2 x i32]* noalias nocapture nonnull readonly, [2 x i32]* noalias nocapture nonnull readonly, [2 x i32]* noalias nocapture nonnull)

define void @matrix_mult_hw_stub_wrapper([2 x i64]*, [2 x i64]*, [2 x [2 x i32]]*) #6 {
entry:
  %3 = call i8* @malloc(i64 16)
  %4 = bitcast i8* %3 to [2 x [2 x i32]]*
  %5 = call i8* @malloc(i64 16)
  %6 = bitcast i8* %5 to [2 x [2 x i32]]*
  call void @copy_out([2 x [2 x i32]]* %4, [2 x i64]* %0, [2 x [2 x i32]]* %6, [2 x i64]* %1, [2 x [2 x i32]]* null, [2 x [2 x i32]]* %2)
  %7 = bitcast [2 x [2 x i32]]* %4 to [2 x i32]*
  %8 = bitcast [2 x [2 x i32]]* %6 to [2 x i32]*
  %9 = bitcast [2 x [2 x i32]]* %2 to [2 x i32]*
  call void @matrix_mult_hw_stub([2 x i32]* %7, [2 x i32]* %8, [2 x i32]* %9)
  call void @copy_in([2 x [2 x i32]]* %4, [2 x i64]* %0, [2 x [2 x i32]]* %6, [2 x i64]* %1, [2 x [2 x i32]]* null, [2 x [2 x i32]]* %2)
  call void @free(i8* %3)
  call void @free(i8* %5)
  ret void
}

attributes #0 = { inaccessiblememonly nounwind willreturn }
attributes #1 = { inaccessiblemem_or_argmemonly noinline willreturn "fpga.wrapper.func"="wrapper" }
attributes #2 = { argmemonly noinline norecurse willreturn "fpga.wrapper.func"="onebyonecpy_hls" }
attributes #3 = { argmemonly noinline norecurse willreturn "fpga.wrapper.func"="arraycpy_hls" }
attributes #4 = { argmemonly noinline norecurse willreturn "fpga.wrapper.func"="copyin" }
attributes #5 = { argmemonly noinline norecurse willreturn "fpga.wrapper.func"="copyout" }
attributes #6 = { "fpga.wrapper.func"="stub" }
attributes #7 = { inaccessiblememonly nounwind willreturn "xlx.source"="infer-from-pragma" }

!llvm.dbg.cu = !{}
!llvm.ident = !{!0, !0, !0, !0, !0, !0, !0, !0, !0, !0, !0, !0, !0, !0, !0, !0, !0, !0, !0, !0, !0, !0, !0, !0, !0, !0, !0, !0, !0, !0, !0, !0, !0, !0, !0, !0, !0, !0, !0, !0, !0, !0, !0, !0, !0, !0, !0, !0, !0, !0, !0, !0, !0, !0, !0, !0, !0, !0, !0, !0, !0, !0, !0, !0, !0, !0, !0, !0, !0, !0, !0, !0, !0, !0, !0, !0, !0, !0, !0, !0, !0, !0, !0, !0, !0, !0, !0, !0, !0, !0, !0, !0, !0, !0, !0, !0, !0, !0, !0, !0, !0, !0, !0, !0, !0, !0, !0, !0, !0, !0, !0, !0, !0, !0, !0, !0, !0, !0, !0, !0, !0, !0, !0, !0, !0, !0, !0, !0, !0, !0, !0, !0, !0, !0, !0, !0, !0, !0, !0, !0, !0, !0, !0, !0, !0, !0, !0, !0, !0, !0, !0, !0, !0, !0, !0, !0, !0, !0, !0, !0, !0, !0, !0, !0, !0, !0, !0, !0, !0, !0, !0, !0, !0, !0, !0, !0, !0, !0, !0, !0, !0, !0, !0, !0, !0, !0, !0, !0, !0, !0, !0, !0, !0, !0, !0, !0, !0, !0, !0, !0, !0, !0, !0, !0, !0, !0, !0, !0, !0, !0, !0, !0, !0, !0, !0, !0, !0, !0, !0, !0, !0, !0, !0, !0, !0, !0, !0, !0, !0, !0, !0, !0, !0, !0, !0, !0, !0, !0, !0, !0, !0, !0, !0, !0, !0, !0, !0, !0, !0, !0, !0, !0, !0, !0, !0, !0, !0, !0, !0, !0, !0, !0, !0, !0, !0, !0, !0, !0, !0, !0, !0, !0, !0, !0, !0, !0, !0, !0, !0, !0, !0, !0, !0, !0, !0, !0, !0, !0, !0, !0, !0, !0, !0, !0, !0, !0, !0, !0, !0, !0, !0, !0, !0, !0, !0, !0, !0, !0, !0, !0, !0, !0, !0, !0, !0, !0, !0, !0, !0, !0, !0, !0, !0, !0, !0, !0, !0, !0, !0, !0, !0, !0, !0, !0, !0, !0, !0, !0, !0, !0, !0, !0, !0, !0, !0, !0, !0, !0, !0, !0, !0, !0, !0, !0, !0, !0, !0, !0, !0, !0, !0, !0, !0, !0, !0, !0, !0, !0, !0, !0, !0, !0, !0, !0, !0, !0, !0, !0, !0, !0, !0, !0, !0, !0, !0, !0, !0, !0, !0, !0, !0, !0, !0, !0, !0, !0, !0, !0, !0, !0, !0, !0, !0, !0, !0, !0, !0, !0, !0, !0, !0, !0, !0, !0, !0, !0, !0, !0, !0, !0, !0, !0, !0, !0, !0, !0, !0, !0, !0, !0, !0, !0, !0, !0, !0, !0, !0, !0, !0, !0, !0, !0, !0, !0, !0, !0, !0, !0, !0, !0, !0, !0, !0, !0, !0, !0, !0, !0, !0, !0, !0, !0, !0, !0, !0, !0, !0, !0, !0, !0, !0, !0, !0, !0, !0, !0, !0, !0, !0, !0, !0, !0, !0, !0, !0, !0, !0, !0, !0, !0, !0, !0, !0, !0, !0, !0, !0, !0, !0, !0, !0, !0, !0, !0, !0, !0, !0, !0, !0, !0, !0, !0, !0, !0, !0, !0, !0, !0, !0, !0, !0, !0, !0, !0, !0, !0, !0, !0, !0, !0, !0, !0, !0, !0, !0, !0, !0, !0, !0, !0, !0, !0, !0, !0, !0, !0, !0, !0, !0, !0, !0, !0, !0, !0, !0, !0, !0, !0, !0, !0, !0, !0, !0, !0, !0, !0, !0, !0, !0, !0, !0, !0, !0, !0, !0, !0, !0, !0, !0, !0, !0, !0, !0, !0, !0}
!llvm.module.flags = !{!1, !2, !3}
!blackbox_cfg = !{!4}

!0 = !{!"clang version 7.0.0 "}
!1 = !{i32 2, !"Dwarf Version", i32 4}
!2 = !{i32 2, !"Debug Info Version", i32 3}
!3 = !{i32 1, !"wchar_size", i32 4}
!4 = !{}
!5 = !DILocation(line: 6, column: 9, scope: !6)
!6 = distinct !DISubprogram(name: "matrix_mult", linkageName: "_Z11matrix_multPA2_iS0_S0_", scope: !7, file: !7, line: 5, type: !8, isLocal: false, isDefinition: true, scopeLine: 5, flags: DIFlagPrototyped, isOptimized: false, unit: !15, variables: !4)
!7 = !DIFile(filename: "matrix_mult.cpp", directory: "C:\5CUsers\5Cjackh\5CDownloads\5CMatrix_Lab4\5Creshape")
!8 = !DISubroutineType(types: !9)
!9 = !{null, !10, !10, !10}
!10 = !DIDerivedType(tag: DW_TAG_pointer_type, baseType: !11, size: 64)
!11 = !DICompositeType(tag: DW_TAG_array_type, baseType: !12, size: 64, elements: !13)
!12 = !DIBasicType(name: "int", size: 32, encoding: DW_ATE_signed)
!13 = !{!14}
!14 = !DISubrange(count: 2)
!15 = distinct !DICompileUnit(language: DW_LANG_C_plus_plus, file: !16, producer: "clang version 7.0.0 ", isOptimized: true, runtimeVersion: 0, emissionKind: FullDebug, enums: !17, globals: !1066, imports: !1079)
!16 = !DIFile(filename: "C:/Users/jackh/Downloads/Matrix_Lab4/reshape/reshape/hls/.autopilot/db\5Cmatrix_mult.pp.0.cpp", directory: "C:\5CUsers\5Cjackh\5CDownloads\5CMatrix_Lab4\5Creshape")
!17 = !{!18, !43, !52, !63, !69}
!18 = distinct !DICompositeType(tag: DW_TAG_enumeration_type, name: "_Ios_Fmtflags", scope: !20, file: !19, line: 57, size: 32, elements: !21, identifier: "_ZTSSt13_Ios_Fmtflags")
!19 = !DIFile(filename: "C:/Xilinx/2025.1/Vitis/tps/mingw/8.3.0/win64.o/nt\5Clib\5Cgcc\5Cx86_64-w64-mingw32\5C8.3.0\5Cinclude\5Cc++\5Cbits/ios_base.h", directory: "C:\5CUsers\5Cjackh\5CDownloads\5CMatrix_Lab4\5Creshape")
!20 = !DINamespace(name: "std", scope: null)
!21 = !{!22, !23, !24, !25, !26, !27, !28, !29, !30, !31, !32, !33, !34, !35, !36, !37, !38, !39, !40, !41, !42}
!22 = !DIEnumerator(name: "_S_boolalpha", value: 1)
!23 = !DIEnumerator(name: "_S_dec", value: 2)
!24 = !DIEnumerator(name: "_S_fixed", value: 4)
!25 = !DIEnumerator(name: "_S_hex", value: 8)
!26 = !DIEnumerator(name: "_S_internal", value: 16)
!27 = !DIEnumerator(name: "_S_left", value: 32)
!28 = !DIEnumerator(name: "_S_oct", value: 64)
!29 = !DIEnumerator(name: "_S_right", value: 128)
!30 = !DIEnumerator(name: "_S_scientific", value: 256)
!31 = !DIEnumerator(name: "_S_showbase", value: 512)
!32 = !DIEnumerator(name: "_S_showpoint", value: 1024)
!33 = !DIEnumerator(name: "_S_showpos", value: 2048)
!34 = !DIEnumerator(name: "_S_skipws", value: 4096)
!35 = !DIEnumerator(name: "_S_unitbuf", value: 8192)
!36 = !DIEnumerator(name: "_S_uppercase", value: 16384)
!37 = !DIEnumerator(name: "_S_adjustfield", value: 176)
!38 = !DIEnumerator(name: "_S_basefield", value: 74)
!39 = !DIEnumerator(name: "_S_floatfield", value: 260)
!40 = !DIEnumerator(name: "_S_ios_fmtflags_end", value: 65536)
!41 = !DIEnumerator(name: "_S_ios_fmtflags_max", value: 2147483647)
!42 = !DIEnumerator(name: "_S_ios_fmtflags_min", value: -2147483648)
!43 = distinct !DICompositeType(tag: DW_TAG_enumeration_type, name: "_Ios_Iostate", scope: !20, file: !19, line: 153, size: 32, elements: !44, identifier: "_ZTSSt12_Ios_Iostate")
!44 = !{!45, !46, !47, !48, !49, !50, !51}
!45 = !DIEnumerator(name: "_S_goodbit", value: 0)
!46 = !DIEnumerator(name: "_S_badbit", value: 1)
!47 = !DIEnumerator(name: "_S_eofbit", value: 2)
!48 = !DIEnumerator(name: "_S_failbit", value: 4)
!49 = !DIEnumerator(name: "_S_ios_iostate_end", value: 65536)
!50 = !DIEnumerator(name: "_S_ios_iostate_max", value: 2147483647)
!51 = !DIEnumerator(name: "_S_ios_iostate_min", value: -2147483648)
!52 = distinct !DICompositeType(tag: DW_TAG_enumeration_type, name: "_Ios_Openmode", scope: !20, file: !19, line: 111, size: 32, elements: !53, identifier: "_ZTSSt13_Ios_Openmode")
!53 = !{!54, !55, !56, !57, !58, !59, !60, !61, !62}
!54 = !DIEnumerator(name: "_S_app", value: 1)
!55 = !DIEnumerator(name: "_S_ate", value: 2)
!56 = !DIEnumerator(name: "_S_bin", value: 4)
!57 = !DIEnumerator(name: "_S_in", value: 8)
!58 = !DIEnumerator(name: "_S_out", value: 16)
!59 = !DIEnumerator(name: "_S_trunc", value: 32)
!60 = !DIEnumerator(name: "_S_ios_openmode_end", value: 65536)
!61 = !DIEnumerator(name: "_S_ios_openmode_max", value: 2147483647)
!62 = !DIEnumerator(name: "_S_ios_openmode_min", value: -2147483648)
!63 = distinct !DICompositeType(tag: DW_TAG_enumeration_type, name: "_Ios_Seekdir", scope: !20, file: !19, line: 193, size: 32, elements: !64, identifier: "_ZTSSt12_Ios_Seekdir")
!64 = !{!65, !66, !67, !68}
!65 = !DIEnumerator(name: "_S_beg", value: 0)
!66 = !DIEnumerator(name: "_S_cur", value: 1)
!67 = !DIEnumerator(name: "_S_end", value: 2)
!68 = !DIEnumerator(name: "_S_ios_seekdir_end", value: 65536)
!69 = distinct !DICompositeType(tag: DW_TAG_enumeration_type, name: "event", scope: !70, file: !19, line: 489, size: 32, elements: !1062, identifier: "_ZTSNSt8ios_base5eventE")
!70 = distinct !DICompositeType(tag: DW_TAG_class_type, name: "ios_base", scope: !20, file: !19, line: 228, size: 1728, flags: DIFlagTypePassByReference, elements: !71, vtableHolder: !70, identifier: "_ZTSSt8ios_base")
!71 = !{!72, !77, !80, !81, !82, !83, !84, !85, !86, !87, !88, !89, !90, !91, !92, !93, !94, !95, !96, !97, !100, !101, !102, !103, !106, !107, !108, !109, !110, !111, !114, !115, !116, !122, !123, !124, !125, !126, !151, !161, !165, !166, !168, !990, !994, !997, !1000, !1004, !1005, !1010, !1013, !1014, !1017, !1020, !1023, !1026, !1027, !1028, !1031, !1034, !1037, !1040, !1041, !1045, !1049, !1050, !1051, !1055, !1058, !1061}
!72 = !DIDerivedType(tag: DW_TAG_member, name: "_vptr$ios_base", scope: !19, file: !19, baseType: !73, size: 64, flags: DIFlagArtificial)
!73 = !DIDerivedType(tag: DW_TAG_pointer_type, baseType: !74, size: 64)
!74 = !DIDerivedType(tag: DW_TAG_pointer_type, name: "__vtbl_ptr_type", baseType: !75, size: 64)
!75 = !DISubroutineType(types: !76)
!76 = !{!12}
!77 = !DIDerivedType(tag: DW_TAG_member, name: "boolalpha", scope: !70, file: !19, line: 326, baseType: !78, flags: DIFlagPublic | DIFlagStaticMember, extraData: i32 1)
!78 = !DIDerivedType(tag: DW_TAG_const_type, baseType: !79)
!79 = !DIDerivedType(tag: DW_TAG_typedef, name: "fmtflags", scope: !70, file: !19, line: 323, baseType: !18)
!80 = !DIDerivedType(tag: DW_TAG_member, name: "dec", scope: !70, file: !19, line: 329, baseType: !78, flags: DIFlagPublic | DIFlagStaticMember, extraData: i32 2)
!81 = !DIDerivedType(tag: DW_TAG_member, name: "fixed", scope: !70, file: !19, line: 332, baseType: !78, flags: DIFlagPublic | DIFlagStaticMember, extraData: i32 4)
!82 = !DIDerivedType(tag: DW_TAG_member, name: "hex", scope: !70, file: !19, line: 335, baseType: !78, flags: DIFlagPublic | DIFlagStaticMember, extraData: i32 8)
!83 = !DIDerivedType(tag: DW_TAG_member, name: "internal", scope: !70, file: !19, line: 340, baseType: !78, flags: DIFlagPublic | DIFlagStaticMember, extraData: i32 16)
!84 = !DIDerivedType(tag: DW_TAG_member, name: "left", scope: !70, file: !19, line: 344, baseType: !78, flags: DIFlagPublic | DIFlagStaticMember, extraData: i32 32)
!85 = !DIDerivedType(tag: DW_TAG_member, name: "oct", scope: !70, file: !19, line: 347, baseType: !78, flags: DIFlagPublic | DIFlagStaticMember, extraData: i32 64)
!86 = !DIDerivedType(tag: DW_TAG_member, name: "right", scope: !70, file: !19, line: 351, baseType: !78, flags: DIFlagPublic | DIFlagStaticMember, extraData: i32 128)
!87 = !DIDerivedType(tag: DW_TAG_member, name: "scientific", scope: !70, file: !19, line: 354, baseType: !78, flags: DIFlagPublic | DIFlagStaticMember, extraData: i32 256)
!88 = !DIDerivedType(tag: DW_TAG_member, name: "showbase", scope: !70, file: !19, line: 358, baseType: !78, flags: DIFlagPublic | DIFlagStaticMember, extraData: i32 512)
!89 = !DIDerivedType(tag: DW_TAG_member, name: "showpoint", scope: !70, file: !19, line: 362, baseType: !78, flags: DIFlagPublic | DIFlagStaticMember, extraData: i32 1024)
!90 = !DIDerivedType(tag: DW_TAG_member, name: "showpos", scope: !70, file: !19, line: 365, baseType: !78, flags: DIFlagPublic | DIFlagStaticMember, extraData: i32 2048)
!91 = !DIDerivedType(tag: DW_TAG_member, name: "skipws", scope: !70, file: !19, line: 368, baseType: !78, flags: DIFlagPublic | DIFlagStaticMember, extraData: i32 4096)
!92 = !DIDerivedType(tag: DW_TAG_member, name: "unitbuf", scope: !70, file: !19, line: 371, baseType: !78, flags: DIFlagPublic | DIFlagStaticMember, extraData: i32 8192)
!93 = !DIDerivedType(tag: DW_TAG_member, name: "uppercase", scope: !70, file: !19, line: 375, baseType: !78, flags: DIFlagPublic | DIFlagStaticMember, extraData: i32 16384)
!94 = !DIDerivedType(tag: DW_TAG_member, name: "adjustfield", scope: !70, file: !19, line: 378, baseType: !78, flags: DIFlagPublic | DIFlagStaticMember, extraData: i32 176)
!95 = !DIDerivedType(tag: DW_TAG_member, name: "basefield", scope: !70, file: !19, line: 381, baseType: !78, flags: DIFlagPublic | DIFlagStaticMember, extraData: i32 74)
!96 = !DIDerivedType(tag: DW_TAG_member, name: "floatfield", scope: !70, file: !19, line: 384, baseType: !78, flags: DIFlagPublic | DIFlagStaticMember, extraData: i32 260)
!97 = !DIDerivedType(tag: DW_TAG_member, name: "badbit", scope: !70, file: !19, line: 402, baseType: !98, flags: DIFlagPublic | DIFlagStaticMember, extraData: i32 1)
!98 = !DIDerivedType(tag: DW_TAG_const_type, baseType: !99)
!99 = !DIDerivedType(tag: DW_TAG_typedef, name: "iostate", scope: !70, file: !19, line: 398, baseType: !43)
!100 = !DIDerivedType(tag: DW_TAG_member, name: "eofbit", scope: !70, file: !19, line: 405, baseType: !98, flags: DIFlagPublic | DIFlagStaticMember, extraData: i32 2)
!101 = !DIDerivedType(tag: DW_TAG_member, name: "failbit", scope: !70, file: !19, line: 410, baseType: !98, flags: DIFlagPublic | DIFlagStaticMember, extraData: i32 4)
!102 = !DIDerivedType(tag: DW_TAG_member, name: "goodbit", scope: !70, file: !19, line: 413, baseType: !98, flags: DIFlagPublic | DIFlagStaticMember, extraData: i32 0)
!103 = !DIDerivedType(tag: DW_TAG_member, name: "app", scope: !70, file: !19, line: 432, baseType: !104, flags: DIFlagPublic | DIFlagStaticMember, extraData: i32 1)
!104 = !DIDerivedType(tag: DW_TAG_const_type, baseType: !105)
!105 = !DIDerivedType(tag: DW_TAG_typedef, name: "openmode", scope: !70, file: !19, line: 429, baseType: !52)
!106 = !DIDerivedType(tag: DW_TAG_member, name: "ate", scope: !70, file: !19, line: 435, baseType: !104, flags: DIFlagPublic | DIFlagStaticMember, extraData: i32 2)
!107 = !DIDerivedType(tag: DW_TAG_member, name: "binary", scope: !70, file: !19, line: 440, baseType: !104, flags: DIFlagPublic | DIFlagStaticMember, extraData: i32 4)
!108 = !DIDerivedType(tag: DW_TAG_member, name: "in", scope: !70, file: !19, line: 443, baseType: !104, flags: DIFlagPublic | DIFlagStaticMember, extraData: i32 8)
!109 = !DIDerivedType(tag: DW_TAG_member, name: "out", scope: !70, file: !19, line: 446, baseType: !104, flags: DIFlagPublic | DIFlagStaticMember, extraData: i32 16)
!110 = !DIDerivedType(tag: DW_TAG_member, name: "trunc", scope: !70, file: !19, line: 449, baseType: !104, flags: DIFlagPublic | DIFlagStaticMember, extraData: i32 32)
!111 = !DIDerivedType(tag: DW_TAG_member, name: "beg", scope: !70, file: !19, line: 464, baseType: !112, flags: DIFlagPublic | DIFlagStaticMember, extraData: i32 0)
!112 = !DIDerivedType(tag: DW_TAG_const_type, baseType: !113)
!113 = !DIDerivedType(tag: DW_TAG_typedef, name: "seekdir", scope: !70, file: !19, line: 461, baseType: !63)
!114 = !DIDerivedType(tag: DW_TAG_member, name: "cur", scope: !70, file: !19, line: 467, baseType: !112, flags: DIFlagPublic | DIFlagStaticMember, extraData: i32 1)
!115 = !DIDerivedType(tag: DW_TAG_member, name: "end", scope: !70, file: !19, line: 470, baseType: !112, flags: DIFlagPublic | DIFlagStaticMember, extraData: i32 2)
!116 = !DIDerivedType(tag: DW_TAG_member, name: "_M_precision", scope: !70, file: !19, line: 522, baseType: !117, size: 64, offset: 64, flags: DIFlagProtected)
!117 = !DIDerivedType(tag: DW_TAG_typedef, name: "streamsize", scope: !20, file: !118, line: 98, baseType: !119)
!118 = !DIFile(filename: "C:/Xilinx/2025.1/Vitis/tps/mingw/8.3.0/win64.o/nt\5Clib\5Cgcc\5Cx86_64-w64-mingw32\5C8.3.0\5Cinclude\5Cc++\5Cbits/postypes.h", directory: "C:\5CUsers\5Cjackh\5CDownloads\5CMatrix_Lab4\5Creshape")
!119 = !DIDerivedType(tag: DW_TAG_typedef, name: "ptrdiff_t", scope: !20, file: !120, line: 239, baseType: !121)
!120 = !DIFile(filename: "C:/Xilinx/2025.1/Vitis/tps/mingw/8.3.0/win64.o/nt\5Clib\5Cgcc\5Cx86_64-w64-mingw32\5C8.3.0\5Cinclude\5Cc++\5Cx86_64-w64-mingw32\5Cbits/c++config.h", directory: "C:\5CUsers\5Cjackh\5CDownloads\5CMatrix_Lab4\5Creshape")
!121 = !DIBasicType(name: "long int", size: 64, encoding: DW_ATE_signed)
!122 = !DIDerivedType(tag: DW_TAG_member, name: "_M_width", scope: !70, file: !19, line: 523, baseType: !117, size: 64, offset: 128, flags: DIFlagProtected)
!123 = !DIDerivedType(tag: DW_TAG_member, name: "_M_flags", scope: !70, file: !19, line: 524, baseType: !79, size: 32, offset: 192, flags: DIFlagProtected)
!124 = !DIDerivedType(tag: DW_TAG_member, name: "_M_exception", scope: !70, file: !19, line: 525, baseType: !99, size: 32, offset: 224, flags: DIFlagProtected)
!125 = !DIDerivedType(tag: DW_TAG_member, name: "_M_streambuf_state", scope: !70, file: !19, line: 526, baseType: !99, size: 32, offset: 256, flags: DIFlagProtected)
!126 = !DIDerivedType(tag: DW_TAG_member, name: "_M_callbacks", scope: !70, file: !19, line: 560, baseType: !127, size: 64, offset: 320, flags: DIFlagProtected)
!127 = !DIDerivedType(tag: DW_TAG_pointer_type, baseType: !128, size: 64)
!128 = distinct !DICompositeType(tag: DW_TAG_structure_type, name: "_Callback_list", scope: !70, file: !19, line: 530, size: 192, flags: DIFlagTypePassByValue, elements: !129, identifier: "_ZTSNSt8ios_base14_Callback_listE")
!129 = !{!130, !131, !137, !138, !141, !145, !148}
!130 = !DIDerivedType(tag: DW_TAG_member, name: "_M_next", scope: !128, file: !19, line: 533, baseType: !127, size: 64)
!131 = !DIDerivedType(tag: DW_TAG_member, name: "_M_fn", scope: !128, file: !19, line: 534, baseType: !132, size: 64, offset: 64)
!132 = !DIDerivedType(tag: DW_TAG_typedef, name: "event_callback", scope: !70, file: !19, line: 506, baseType: !133)
!133 = !DIDerivedType(tag: DW_TAG_pointer_type, baseType: !134, size: 64)
!134 = !DISubroutineType(types: !135)
!135 = !{null, !69, !136, !12}
!136 = !DIDerivedType(tag: DW_TAG_reference_type, baseType: !70, size: 64)
!137 = !DIDerivedType(tag: DW_TAG_member, name: "_M_index", scope: !128, file: !19, line: 535, baseType: !12, size: 32, offset: 128)
!138 = !DIDerivedType(tag: DW_TAG_member, name: "_M_refcount", scope: !128, file: !19, line: 536, baseType: !139, size: 32, offset: 160)
!139 = !DIDerivedType(tag: DW_TAG_typedef, name: "_Atomic_word", file: !140, line: 32, baseType: !12)
!140 = !DIFile(filename: "C:/Xilinx/2025.1/Vitis/tps/mingw/8.3.0/win64.o/nt\5Clib\5Cgcc\5Cx86_64-w64-mingw32\5C8.3.0\5Cinclude\5Cc++\5Cx86_64-w64-mingw32\5Cbits/atomic_word.h", directory: "C:\5CUsers\5Cjackh\5CDownloads\5CMatrix_Lab4\5Creshape")
!141 = !DISubprogram(name: "_Callback_list", scope: !128, file: !19, line: 538, type: !142, isLocal: false, isDefinition: false, scopeLine: 538, flags: DIFlagPrototyped, isOptimized: false)
!142 = !DISubroutineType(types: !143)
!143 = !{null, !144, !132, !12, !127}
!144 = !DIDerivedType(tag: DW_TAG_pointer_type, baseType: !128, size: 64, flags: DIFlagArtificial | DIFlagObjectPointer)
!145 = !DISubprogram(name: "_M_add_reference", linkageName: "_ZNSt8ios_base14_Callback_list16_M_add_referenceEv", scope: !128, file: !19, line: 543, type: !146, isLocal: false, isDefinition: false, scopeLine: 543, flags: DIFlagPrototyped, isOptimized: false)
!146 = !DISubroutineType(types: !147)
!147 = !{null, !144}
!148 = !DISubprogram(name: "_M_remove_reference", linkageName: "_ZNSt8ios_base14_Callback_list19_M_remove_referenceEv", scope: !128, file: !19, line: 547, type: !149, isLocal: false, isDefinition: false, scopeLine: 547, flags: DIFlagPrototyped, isOptimized: false)
!149 = !DISubroutineType(types: !150)
!150 = !{!12, !144}
!151 = !DIDerivedType(tag: DW_TAG_member, name: "_M_word_zero", scope: !70, file: !19, line: 577, baseType: !152, size: 128, offset: 384, flags: DIFlagProtected)
!152 = distinct !DICompositeType(tag: DW_TAG_structure_type, name: "_Words", scope: !70, file: !19, line: 569, size: 128, flags: DIFlagTypePassByValue, elements: !153, identifier: "_ZTSNSt8ios_base6_WordsE")
!153 = !{!154, !156, !157}
!154 = !DIDerivedType(tag: DW_TAG_member, name: "_M_pword", scope: !152, file: !19, line: 571, baseType: !155, size: 64)
!155 = !DIDerivedType(tag: DW_TAG_pointer_type, baseType: null, size: 64)
!156 = !DIDerivedType(tag: DW_TAG_member, name: "_M_iword", scope: !152, file: !19, line: 572, baseType: !121, size: 64, offset: 64)
!157 = !DISubprogram(name: "_Words", scope: !152, file: !19, line: 573, type: !158, isLocal: false, isDefinition: false, scopeLine: 573, flags: DIFlagPrototyped, isOptimized: false)
!158 = !DISubroutineType(types: !159)
!159 = !{null, !160}
!160 = !DIDerivedType(tag: DW_TAG_pointer_type, baseType: !152, size: 64, flags: DIFlagArtificial | DIFlagObjectPointer)
!161 = !DIDerivedType(tag: DW_TAG_member, name: "_M_local_word", scope: !70, file: !19, line: 582, baseType: !162, size: 1024, offset: 512, flags: DIFlagProtected)
!162 = !DICompositeType(tag: DW_TAG_array_type, baseType: !152, size: 1024, elements: !163)
!163 = !{!164}
!164 = !DISubrange(count: 8)
!165 = !DIDerivedType(tag: DW_TAG_member, name: "_M_word_size", scope: !70, file: !19, line: 585, baseType: !12, size: 32, offset: 1536, flags: DIFlagProtected)
!166 = !DIDerivedType(tag: DW_TAG_member, name: "_M_word", scope: !70, file: !19, line: 586, baseType: !167, size: 64, offset: 1600, flags: DIFlagProtected)
!167 = !DIDerivedType(tag: DW_TAG_pointer_type, baseType: !152, size: 64)
!168 = !DIDerivedType(tag: DW_TAG_member, name: "_M_ios_locale", scope: !70, file: !19, line: 592, baseType: !169, size: 64, offset: 1664, flags: DIFlagProtected)
!169 = distinct !DICompositeType(tag: DW_TAG_class_type, name: "locale", scope: !20, file: !170, line: 62, size: 64, flags: DIFlagTypePassByReference, elements: !171, identifier: "_ZTSSt6locale")
!170 = !DIFile(filename: "C:/Xilinx/2025.1/Vitis/tps/mingw/8.3.0/win64.o/nt\5Clib\5Cgcc\5Cx86_64-w64-mingw32\5C8.3.0\5Cinclude\5Cc++\5Cbits/locale_classes.h", directory: "C:\5CUsers\5Cjackh\5CDownloads\5CMatrix_Lab4\5Creshape")
!171 = !{!172, !175, !176, !177, !178, !179, !180, !181, !182, !343, !344, !345, !349, !350, !351, !355, !360, !363, !366, !957, !960, !963, !964, !967, !971, !974, !975, !978, !981, !984, !985, !986, !989}
!172 = !DIDerivedType(tag: DW_TAG_member, name: "none", scope: !169, file: !170, line: 98, baseType: !173, flags: DIFlagPublic | DIFlagStaticMember, extraData: i32 0)
!173 = !DIDerivedType(tag: DW_TAG_const_type, baseType: !174)
!174 = !DIDerivedType(tag: DW_TAG_typedef, name: "category", scope: !169, file: !170, line: 67, baseType: !12)
!175 = !DIDerivedType(tag: DW_TAG_member, name: "ctype", scope: !169, file: !170, line: 99, baseType: !173, flags: DIFlagPublic | DIFlagStaticMember, extraData: i32 1)
!176 = !DIDerivedType(tag: DW_TAG_member, name: "numeric", scope: !169, file: !170, line: 100, baseType: !173, flags: DIFlagPublic | DIFlagStaticMember, extraData: i32 2)
!177 = !DIDerivedType(tag: DW_TAG_member, name: "collate", scope: !169, file: !170, line: 101, baseType: !173, flags: DIFlagPublic | DIFlagStaticMember, extraData: i32 4)
!178 = !DIDerivedType(tag: DW_TAG_member, name: "time", scope: !169, file: !170, line: 102, baseType: !173, flags: DIFlagPublic | DIFlagStaticMember, extraData: i32 8)
!179 = !DIDerivedType(tag: DW_TAG_member, name: "monetary", scope: !169, file: !170, line: 103, baseType: !173, flags: DIFlagPublic | DIFlagStaticMember, extraData: i32 16)
!180 = !DIDerivedType(tag: DW_TAG_member, name: "messages", scope: !169, file: !170, line: 104, baseType: !173, flags: DIFlagPublic | DIFlagStaticMember, extraData: i32 32)
!181 = !DIDerivedType(tag: DW_TAG_member, name: "all", scope: !169, file: !170, line: 105, baseType: !173, flags: DIFlagPublic | DIFlagStaticMember, extraData: i32 63)
!182 = !DIDerivedType(tag: DW_TAG_member, name: "_M_impl", scope: !169, file: !170, line: 309, baseType: !183, size: 64)
!183 = !DIDerivedType(tag: DW_TAG_pointer_type, baseType: !184, size: 64)
!184 = distinct !DICompositeType(tag: DW_TAG_class_type, name: "_Impl", scope: !169, file: !170, line: 522, size: 320, flags: DIFlagTypePassByReference, elements: !185, identifier: "_ZTSNSt6locale5_ImplE")
!185 = !{!186, !187, !275, !276, !277, !280, !285, !286, !287, !288, !289, !290, !294, !298, !299, !304, !307, !310, !311, !314, !315, !319, !323, !326, !329, !332, !335, !340}
!186 = !DIDerivedType(tag: DW_TAG_member, name: "_M_refcount", scope: !184, file: !170, line: 542, baseType: !139, size: 32)
!187 = !DIDerivedType(tag: DW_TAG_member, name: "_M_facets", scope: !184, file: !170, line: 543, baseType: !188, size: 64, offset: 64)
!188 = !DIDerivedType(tag: DW_TAG_pointer_type, baseType: !189, size: 64)
!189 = !DIDerivedType(tag: DW_TAG_pointer_type, baseType: !190, size: 64)
!190 = !DIDerivedType(tag: DW_TAG_const_type, baseType: !191)
!191 = distinct !DICompositeType(tag: DW_TAG_class_type, name: "facet", scope: !169, file: !170, line: 371, size: 128, flags: DIFlagTypePassByReference, elements: !192, vtableHolder: !191, identifier: "_ZTSNSt6locale5facetE")
!192 = !{!193, !194, !195, !199, !203, !207, !210, !216, !219, !224, !227, !230, !233, !236, !239, !243, !247, !251, !252, !274}
!193 = !DIDerivedType(tag: DW_TAG_member, name: "_vptr$facet", scope: !170, file: !170, baseType: !73, size: 64, flags: DIFlagArtificial)
!194 = !DIDerivedType(tag: DW_TAG_member, name: "_M_refcount", scope: !191, file: !170, line: 377, baseType: !139, size: 32, offset: 64)
!195 = !DIDerivedType(tag: DW_TAG_member, name: "_S_c_locale", scope: !191, file: !170, line: 380, baseType: !196, flags: DIFlagStaticMember)
!196 = !DIDerivedType(tag: DW_TAG_typedef, name: "__c_locale", scope: !20, file: !197, line: 49, baseType: !198)
!197 = !DIFile(filename: "C:/Xilinx/2025.1/Vitis/tps/mingw/8.3.0/win64.o/nt\5Clib\5Cgcc\5Cx86_64-w64-mingw32\5C8.3.0\5Cinclude\5Cc++\5Cx86_64-w64-mingw32\5Cbits/c++locale.h", directory: "C:\5CUsers\5Cjackh\5CDownloads\5CMatrix_Lab4\5Creshape")
!198 = !DIDerivedType(tag: DW_TAG_pointer_type, baseType: !12, size: 64)
!199 = !DIDerivedType(tag: DW_TAG_member, name: "_S_c_name", scope: !191, file: !170, line: 383, baseType: !200, flags: DIFlagStaticMember)
!200 = !DICompositeType(tag: DW_TAG_array_type, baseType: !201, size: 16, elements: !13)
!201 = !DIDerivedType(tag: DW_TAG_const_type, baseType: !202)
!202 = !DIBasicType(name: "char", size: 8, encoding: DW_ATE_signed_char)
!203 = !DIDerivedType(tag: DW_TAG_member, name: "_S_once", scope: !191, file: !170, line: 386, baseType: !204, flags: DIFlagStaticMember)
!204 = !DIDerivedType(tag: DW_TAG_typedef, name: "__gthread_once_t", file: !205, line: 347, baseType: !206)
!205 = !DIFile(filename: "C:/Xilinx/2025.1/Vitis/tps/mingw/8.3.0/win64.o/nt\5Clib\5Cgcc\5Cx86_64-w64-mingw32\5C8.3.0\5Cinclude\5Cc++\5Cx86_64-w64-mingw32\5Cbits/gthr-default.h", directory: "C:\5CUsers\5Cjackh\5CDownloads\5CMatrix_Lab4\5Creshape")
!206 = distinct !DICompositeType(tag: DW_TAG_structure_type, file: !205, line: 344, size: 128, align: 64, flags: DIFlagFwdDecl, identifier: "_ZTS16__gthread_once_t")
!207 = !DISubprogram(name: "_S_initialize_once", linkageName: "_ZNSt6locale5facet18_S_initialize_onceEv", scope: !191, file: !170, line: 390, type: !208, isLocal: false, isDefinition: false, scopeLine: 390, flags: DIFlagPrototyped | DIFlagStaticMember, isOptimized: false)
!208 = !DISubroutineType(types: !209)
!209 = !{null}
!210 = !DISubprogram(name: "facet", scope: !191, file: !170, line: 403, type: !211, isLocal: false, isDefinition: false, scopeLine: 403, flags: DIFlagProtected | DIFlagExplicit | DIFlagPrototyped, isOptimized: false)
!211 = !DISubroutineType(types: !212)
!212 = !{null, !213, !214}
!213 = !DIDerivedType(tag: DW_TAG_pointer_type, baseType: !191, size: 64, flags: DIFlagArtificial | DIFlagObjectPointer)
!214 = !DIDerivedType(tag: DW_TAG_typedef, name: "size_t", scope: !20, file: !120, line: 238, baseType: !215)
!215 = !DIBasicType(name: "long unsigned int", size: 64, encoding: DW_ATE_unsigned)
!216 = !DISubprogram(name: "~facet", scope: !191, file: !170, line: 408, type: !217, isLocal: false, isDefinition: false, scopeLine: 408, containingType: !191, virtuality: DW_VIRTUALITY_virtual, virtualIndex: 0, flags: DIFlagProtected | DIFlagPrototyped, isOptimized: false)
!217 = !DISubroutineType(types: !218)
!218 = !{null, !213}
!219 = !DISubprogram(name: "_S_create_c_locale", linkageName: "_ZNSt6locale5facet18_S_create_c_localeERPiPKcS1_", scope: !191, file: !170, line: 411, type: !220, isLocal: false, isDefinition: false, scopeLine: 411, flags: DIFlagProtected | DIFlagPrototyped | DIFlagStaticMember, isOptimized: false)
!220 = !DISubroutineType(types: !221)
!221 = !{null, !222, !223, !196}
!222 = !DIDerivedType(tag: DW_TAG_reference_type, baseType: !196, size: 64)
!223 = !DIDerivedType(tag: DW_TAG_pointer_type, baseType: !201, size: 64)
!224 = !DISubprogram(name: "_S_clone_c_locale", linkageName: "_ZNSt6locale5facet17_S_clone_c_localeERPi", scope: !191, file: !170, line: 415, type: !225, isLocal: false, isDefinition: false, scopeLine: 415, flags: DIFlagProtected | DIFlagPrototyped | DIFlagStaticMember, isOptimized: false)
!225 = !DISubroutineType(types: !226)
!226 = !{!196, !222}
!227 = !DISubprogram(name: "_S_destroy_c_locale", linkageName: "_ZNSt6locale5facet19_S_destroy_c_localeERPi", scope: !191, file: !170, line: 418, type: !228, isLocal: false, isDefinition: false, scopeLine: 418, flags: DIFlagProtected | DIFlagPrototyped | DIFlagStaticMember, isOptimized: false)
!228 = !DISubroutineType(types: !229)
!229 = !{null, !222}
!230 = !DISubprogram(name: "_S_lc_ctype_c_locale", linkageName: "_ZNSt6locale5facet20_S_lc_ctype_c_localeEPiPKc", scope: !191, file: !170, line: 421, type: !231, isLocal: false, isDefinition: false, scopeLine: 421, flags: DIFlagProtected | DIFlagPrototyped | DIFlagStaticMember, isOptimized: false)
!231 = !DISubroutineType(types: !232)
!232 = !{!196, !196, !223}
!233 = !DISubprogram(name: "_S_get_c_locale", linkageName: "_ZNSt6locale5facet15_S_get_c_localeEv", scope: !191, file: !170, line: 426, type: !234, isLocal: false, isDefinition: false, scopeLine: 426, flags: DIFlagProtected | DIFlagPrototyped | DIFlagStaticMember, isOptimized: false)
!234 = !DISubroutineType(types: !235)
!235 = !{!196}
!236 = !DISubprogram(name: "_S_get_c_name", linkageName: "_ZNSt6locale5facet13_S_get_c_nameEv", scope: !191, file: !170, line: 429, type: !237, isLocal: false, isDefinition: false, scopeLine: 429, flags: DIFlagProtected | DIFlagPrototyped | DIFlagStaticMember, isOptimized: false)
!237 = !DISubroutineType(types: !238)
!238 = !{!223}
!239 = !DISubprogram(name: "facet", scope: !191, file: !170, line: 438, type: !240, isLocal: false, isDefinition: false, scopeLine: 438, flags: DIFlagProtected | DIFlagPrototyped, isOptimized: false)
!240 = !DISubroutineType(types: !241)
!241 = !{null, !213, !242}
!242 = !DIDerivedType(tag: DW_TAG_reference_type, baseType: !190, size: 64)
!243 = !DISubprogram(name: "operator=", linkageName: "_ZNSt6locale5facetaSERKS0_", scope: !191, file: !170, line: 441, type: !244, isLocal: false, isDefinition: false, scopeLine: 441, flags: DIFlagProtected | DIFlagPrototyped, isOptimized: false)
!244 = !DISubroutineType(types: !245)
!245 = !{!246, !213, !242}
!246 = !DIDerivedType(tag: DW_TAG_reference_type, baseType: !191, size: 64)
!247 = !DISubprogram(name: "_M_add_reference", linkageName: "_ZNKSt6locale5facet16_M_add_referenceEv", scope: !191, file: !170, line: 446, type: !248, isLocal: false, isDefinition: false, scopeLine: 446, flags: DIFlagPrototyped, isOptimized: false)
!248 = !DISubroutineType(types: !249)
!249 = !{null, !250}
!250 = !DIDerivedType(tag: DW_TAG_pointer_type, baseType: !190, size: 64, flags: DIFlagArtificial | DIFlagObjectPointer)
!251 = !DISubprogram(name: "_M_remove_reference", linkageName: "_ZNKSt6locale5facet19_M_remove_referenceEv", scope: !191, file: !170, line: 450, type: !248, isLocal: false, isDefinition: false, scopeLine: 450, flags: DIFlagPrototyped, isOptimized: false)
!252 = !DISubprogram(name: "_M_sso_shim", linkageName: "_ZNKSt6locale5facet11_M_sso_shimEPKNS_2idE", scope: !191, file: !170, line: 464, type: !253, isLocal: false, isDefinition: false, scopeLine: 464, flags: DIFlagPrototyped, isOptimized: false)
!253 = !DISubroutineType(types: !254)
!254 = !{!189, !250, !255}
!255 = !DIDerivedType(tag: DW_TAG_pointer_type, baseType: !256, size: 64)
!256 = !DIDerivedType(tag: DW_TAG_const_type, baseType: !257)
!257 = distinct !DICompositeType(tag: DW_TAG_class_type, name: "id", scope: !169, file: !170, line: 483, size: 64, flags: DIFlagTypePassByReference, elements: !258, identifier: "_ZTSNSt6locale2idE")
!258 = !{!259, !260, !261, !266, !267, !270}
!259 = !DIDerivedType(tag: DW_TAG_member, name: "_M_index", scope: !257, file: !170, line: 500, baseType: !214, size: 64)
!260 = !DIDerivedType(tag: DW_TAG_member, name: "_S_refcount", scope: !257, file: !170, line: 503, baseType: !139, flags: DIFlagStaticMember)
!261 = !DISubprogram(name: "operator=", linkageName: "_ZNSt6locale2idaSERKS0_", scope: !257, file: !170, line: 506, type: !262, isLocal: false, isDefinition: false, scopeLine: 506, flags: DIFlagPrototyped, isOptimized: false)
!262 = !DISubroutineType(types: !263)
!263 = !{null, !264, !265}
!264 = !DIDerivedType(tag: DW_TAG_pointer_type, baseType: !257, size: 64, flags: DIFlagArtificial | DIFlagObjectPointer)
!265 = !DIDerivedType(tag: DW_TAG_reference_type, baseType: !256, size: 64)
!266 = !DISubprogram(name: "id", scope: !257, file: !170, line: 508, type: !262, isLocal: false, isDefinition: false, scopeLine: 508, flags: DIFlagPrototyped, isOptimized: false)
!267 = !DISubprogram(name: "id", scope: !257, file: !170, line: 514, type: !268, isLocal: false, isDefinition: false, scopeLine: 514, flags: DIFlagPublic | DIFlagPrototyped, isOptimized: false)
!268 = !DISubroutineType(types: !269)
!269 = !{null, !264}
!270 = !DISubprogram(name: "_M_id", linkageName: "_ZNKSt6locale2id5_M_idEv", scope: !257, file: !170, line: 517, type: !271, isLocal: false, isDefinition: false, scopeLine: 517, flags: DIFlagPublic | DIFlagPrototyped, isOptimized: false)
!271 = !DISubroutineType(types: !272)
!272 = !{!214, !273}
!273 = !DIDerivedType(tag: DW_TAG_pointer_type, baseType: !256, size: 64, flags: DIFlagArtificial | DIFlagObjectPointer)
!274 = !DISubprogram(name: "_M_cow_shim", linkageName: "_ZNKSt6locale5facet11_M_cow_shimEPKNS_2idE", scope: !191, file: !170, line: 465, type: !253, isLocal: false, isDefinition: false, scopeLine: 465, flags: DIFlagPrototyped, isOptimized: false)
!275 = !DIDerivedType(tag: DW_TAG_member, name: "_M_facets_size", scope: !184, file: !170, line: 544, baseType: !214, size: 64, offset: 128)
!276 = !DIDerivedType(tag: DW_TAG_member, name: "_M_caches", scope: !184, file: !170, line: 545, baseType: !188, size: 64, offset: 192)
!277 = !DIDerivedType(tag: DW_TAG_member, name: "_M_names", scope: !184, file: !170, line: 546, baseType: !278, size: 64, offset: 256)
!278 = !DIDerivedType(tag: DW_TAG_pointer_type, baseType: !279, size: 64)
!279 = !DIDerivedType(tag: DW_TAG_pointer_type, baseType: !202, size: 64)
!280 = !DIDerivedType(tag: DW_TAG_member, name: "_S_id_ctype", scope: !184, file: !170, line: 547, baseType: !281, flags: DIFlagStaticMember)
!281 = !DICompositeType(tag: DW_TAG_array_type, baseType: !282, elements: !283)
!282 = !DIDerivedType(tag: DW_TAG_const_type, baseType: !255)
!283 = !{!284}
!284 = !DISubrange(count: -1)
!285 = !DIDerivedType(tag: DW_TAG_member, name: "_S_id_numeric", scope: !184, file: !170, line: 548, baseType: !281, flags: DIFlagStaticMember)
!286 = !DIDerivedType(tag: DW_TAG_member, name: "_S_id_collate", scope: !184, file: !170, line: 549, baseType: !281, flags: DIFlagStaticMember)
!287 = !DIDerivedType(tag: DW_TAG_member, name: "_S_id_time", scope: !184, file: !170, line: 550, baseType: !281, flags: DIFlagStaticMember)
!288 = !DIDerivedType(tag: DW_TAG_member, name: "_S_id_monetary", scope: !184, file: !170, line: 551, baseType: !281, flags: DIFlagStaticMember)
!289 = !DIDerivedType(tag: DW_TAG_member, name: "_S_id_messages", scope: !184, file: !170, line: 552, baseType: !281, flags: DIFlagStaticMember)
!290 = !DIDerivedType(tag: DW_TAG_member, name: "_S_facet_categories", scope: !184, file: !170, line: 553, baseType: !291, flags: DIFlagStaticMember)
!291 = !DICompositeType(tag: DW_TAG_array_type, baseType: !292, elements: !283)
!292 = !DIDerivedType(tag: DW_TAG_const_type, baseType: !293)
!293 = !DIDerivedType(tag: DW_TAG_pointer_type, baseType: !282, size: 64)
!294 = !DISubprogram(name: "_M_add_reference", linkageName: "_ZNSt6locale5_Impl16_M_add_referenceEv", scope: !184, file: !170, line: 556, type: !295, isLocal: false, isDefinition: false, scopeLine: 556, flags: DIFlagPrototyped, isOptimized: false)
!295 = !DISubroutineType(types: !296)
!296 = !{null, !297}
!297 = !DIDerivedType(tag: DW_TAG_pointer_type, baseType: !184, size: 64, flags: DIFlagArtificial | DIFlagObjectPointer)
!298 = !DISubprogram(name: "_M_remove_reference", linkageName: "_ZNSt6locale5_Impl19_M_remove_referenceEv", scope: !184, file: !170, line: 560, type: !295, isLocal: false, isDefinition: false, scopeLine: 560, flags: DIFlagPrototyped, isOptimized: false)
!299 = !DISubprogram(name: "_Impl", scope: !184, file: !170, line: 574, type: !300, isLocal: false, isDefinition: false, scopeLine: 574, flags: DIFlagPrototyped, isOptimized: false)
!300 = !DISubroutineType(types: !301)
!301 = !{null, !297, !302, !214}
!302 = !DIDerivedType(tag: DW_TAG_reference_type, baseType: !303, size: 64)
!303 = !DIDerivedType(tag: DW_TAG_const_type, baseType: !184)
!304 = !DISubprogram(name: "_Impl", scope: !184, file: !170, line: 575, type: !305, isLocal: false, isDefinition: false, scopeLine: 575, flags: DIFlagPrototyped, isOptimized: false)
!305 = !DISubroutineType(types: !306)
!306 = !{null, !297, !223, !214}
!307 = !DISubprogram(name: "_Impl", scope: !184, file: !170, line: 576, type: !308, isLocal: false, isDefinition: false, scopeLine: 576, flags: DIFlagPrototyped, isOptimized: false)
!308 = !DISubroutineType(types: !309)
!309 = !{null, !297, !214}
!310 = !DISubprogram(name: "~_Impl", scope: !184, file: !170, line: 578, type: !295, isLocal: false, isDefinition: false, scopeLine: 578, flags: DIFlagPrototyped, isOptimized: false)
!311 = !DISubprogram(name: "_Impl", scope: !184, file: !170, line: 580, type: !312, isLocal: false, isDefinition: false, scopeLine: 580, flags: DIFlagPrototyped, isOptimized: false)
!312 = !DISubroutineType(types: !313)
!313 = !{null, !297, !302}
!314 = !DISubprogram(name: "operator=", linkageName: "_ZNSt6locale5_ImplaSERKS0_", scope: !184, file: !170, line: 583, type: !312, isLocal: false, isDefinition: false, scopeLine: 583, flags: DIFlagPrototyped, isOptimized: false)
!315 = !DISubprogram(name: "_M_check_same_name", linkageName: "_ZNSt6locale5_Impl18_M_check_same_nameEv", scope: !184, file: !170, line: 586, type: !316, isLocal: false, isDefinition: false, scopeLine: 586, flags: DIFlagPrototyped, isOptimized: false)
!316 = !DISubroutineType(types: !317)
!317 = !{!318, !297}
!318 = !DIBasicType(name: "bool", size: 8, encoding: DW_ATE_boolean)
!319 = !DISubprogram(name: "_M_replace_categories", linkageName: "_ZNSt6locale5_Impl21_M_replace_categoriesEPKS0_i", scope: !184, file: !170, line: 597, type: !320, isLocal: false, isDefinition: false, scopeLine: 597, flags: DIFlagPrototyped, isOptimized: false)
!320 = !DISubroutineType(types: !321)
!321 = !{null, !297, !322, !174}
!322 = !DIDerivedType(tag: DW_TAG_pointer_type, baseType: !303, size: 64)
!323 = !DISubprogram(name: "_M_replace_category", linkageName: "_ZNSt6locale5_Impl19_M_replace_categoryEPKS0_PKPKNS_2idE", scope: !184, file: !170, line: 600, type: !324, isLocal: false, isDefinition: false, scopeLine: 600, flags: DIFlagPrototyped, isOptimized: false)
!324 = !DISubroutineType(types: !325)
!325 = !{null, !297, !322, !293}
!326 = !DISubprogram(name: "_M_replace_facet", linkageName: "_ZNSt6locale5_Impl16_M_replace_facetEPKS0_PKNS_2idE", scope: !184, file: !170, line: 603, type: !327, isLocal: false, isDefinition: false, scopeLine: 603, flags: DIFlagPrototyped, isOptimized: false)
!327 = !DISubroutineType(types: !328)
!328 = !{null, !297, !322, !255}
!329 = !DISubprogram(name: "_M_install_facet", linkageName: "_ZNSt6locale5_Impl16_M_install_facetEPKNS_2idEPKNS_5facetE", scope: !184, file: !170, line: 606, type: !330, isLocal: false, isDefinition: false, scopeLine: 606, flags: DIFlagPrototyped, isOptimized: false)
!330 = !DISubroutineType(types: !331)
!331 = !{null, !297, !255, !189}
!332 = !DISubprogram(name: "_M_install_cache", linkageName: "_ZNSt6locale5_Impl16_M_install_cacheEPKNS_5facetEm", scope: !184, file: !170, line: 622, type: !333, isLocal: false, isDefinition: false, scopeLine: 622, flags: DIFlagPrototyped, isOptimized: false)
!333 = !DISubroutineType(types: !334)
!334 = !{null, !297, !189, !214}
!335 = !DISubprogram(name: "_M_init_extra", linkageName: "_ZNSt6locale5_Impl13_M_init_extraEPPNS_5facetE", scope: !184, file: !170, line: 624, type: !336, isLocal: false, isDefinition: false, scopeLine: 624, flags: DIFlagPrototyped, isOptimized: false)
!336 = !DISubroutineType(types: !337)
!337 = !{null, !297, !338}
!338 = !DIDerivedType(tag: DW_TAG_pointer_type, baseType: !339, size: 64)
!339 = !DIDerivedType(tag: DW_TAG_pointer_type, baseType: !191, size: 64)
!340 = !DISubprogram(name: "_M_init_extra", linkageName: "_ZNSt6locale5_Impl13_M_init_extraEPvS1_PKcS3_", scope: !184, file: !170, line: 625, type: !341, isLocal: false, isDefinition: false, scopeLine: 625, flags: DIFlagPrototyped, isOptimized: false)
!341 = !DISubroutineType(types: !342)
!342 = !{null, !297, !155, !155, !223, !223}
!343 = !DIDerivedType(tag: DW_TAG_member, name: "_S_classic", scope: !169, file: !170, line: 312, baseType: !183, flags: DIFlagStaticMember)
!344 = !DIDerivedType(tag: DW_TAG_member, name: "_S_global", scope: !169, file: !170, line: 315, baseType: !183, flags: DIFlagStaticMember)
!345 = !DIDerivedType(tag: DW_TAG_member, name: "_S_categories", scope: !169, file: !170, line: 321, baseType: !346, flags: DIFlagStaticMember)
!346 = !DIDerivedType(tag: DW_TAG_const_type, baseType: !347)
!347 = !DIDerivedType(tag: DW_TAG_pointer_type, baseType: !348, size: 64)
!348 = !DIDerivedType(tag: DW_TAG_const_type, baseType: !223)
!349 = !DIDerivedType(tag: DW_TAG_member, name: "_S_once", scope: !169, file: !170, line: 336, baseType: !204, flags: DIFlagStaticMember)
!350 = !DIDerivedType(tag: DW_TAG_member, name: "_S_twinned_facets", scope: !169, file: !170, line: 355, baseType: !281, flags: DIFlagStaticMember)
!351 = !DISubprogram(name: "locale", scope: !169, file: !170, line: 117, type: !352, isLocal: false, isDefinition: false, scopeLine: 117, flags: DIFlagPublic | DIFlagPrototyped, isOptimized: false)
!352 = !DISubroutineType(types: !353)
!353 = !{null, !354}
!354 = !DIDerivedType(tag: DW_TAG_pointer_type, baseType: !169, size: 64, flags: DIFlagArtificial | DIFlagObjectPointer)
!355 = !DISubprogram(name: "locale", scope: !169, file: !170, line: 126, type: !356, isLocal: false, isDefinition: false, scopeLine: 126, flags: DIFlagPublic | DIFlagPrototyped, isOptimized: false)
!356 = !DISubroutineType(types: !357)
!357 = !{null, !354, !358}
!358 = !DIDerivedType(tag: DW_TAG_reference_type, baseType: !359, size: 64)
!359 = !DIDerivedType(tag: DW_TAG_const_type, baseType: !169)
!360 = !DISubprogram(name: "locale", scope: !169, file: !170, line: 137, type: !361, isLocal: false, isDefinition: false, scopeLine: 137, flags: DIFlagPublic | DIFlagExplicit | DIFlagPrototyped, isOptimized: false)
!361 = !DISubroutineType(types: !362)
!362 = !{null, !354, !223}
!363 = !DISubprogram(name: "locale", scope: !169, file: !170, line: 151, type: !364, isLocal: false, isDefinition: false, scopeLine: 151, flags: DIFlagPublic | DIFlagPrototyped, isOptimized: false)
!364 = !DISubroutineType(types: !365)
!365 = !{null, !354, !358, !223, !174}
!366 = !DISubprogram(name: "locale", scope: !169, file: !170, line: 163, type: !367, isLocal: false, isDefinition: false, scopeLine: 163, flags: DIFlagPublic | DIFlagExplicit | DIFlagPrototyped, isOptimized: false)
!367 = !DISubroutineType(types: !368)
!368 = !{null, !354, !369}
!369 = !DIDerivedType(tag: DW_TAG_reference_type, baseType: !370, size: 64)
!370 = !DIDerivedType(tag: DW_TAG_const_type, baseType: !371)
!371 = !DIDerivedType(tag: DW_TAG_typedef, name: "string", scope: !373, file: !372, line: 74, baseType: !374)
!372 = !DIFile(filename: "C:/Xilinx/2025.1/Vitis/tps/mingw/8.3.0/win64.o/nt\5Clib\5Cgcc\5Cx86_64-w64-mingw32\5C8.3.0\5Cinclude\5Cc++\5Cbits/stringfwd.h", directory: "C:\5CUsers\5Cjackh\5CDownloads\5CMatrix_Lab4\5Creshape")
!373 = !DINamespace(name: "__cxx11", scope: !20, exportSymbols: true)
!374 = distinct !DICompositeType(tag: DW_TAG_class_type, name: "basic_string<char, std::char_traits<char>, std::allocator<char> >", scope: !373, file: !375, line: 1607, size: 256, flags: DIFlagTypePassByReference, elements: !376, templateParams: !903, identifier: "_ZTSNSt7__cxx1112basic_stringIcSt11char_traitsIcESaIcEEE")
!375 = !DIFile(filename: "C:/Xilinx/2025.1/Vitis/tps/mingw/8.3.0/win64.o/nt\5Clib\5Cgcc\5Cx86_64-w64-mingw32\5C8.3.0\5Cinclude\5Cc++\5Cbits/basic_string.tcc", directory: "C:\5CUsers\5Cjackh\5CDownloads\5CMatrix_Lab4\5Creshape")
!376 = !{!377, !488, !508, !509, !517, !521, !524, !529, !532, !538, !539, !540, !543, !547, !550, !551, !554, !555, !559, !564, !567, !570, !573, !576, !579, !580, !583, !589, !594, !597, !600, !603, !607, !610, !613, !614, !617, !618, !621, !624, !627, !630, !633, !636, !640, !645, !648, !651, !652, !656, !659, !662, !665, !668, !671, !674, !675, !676, !681, !686, !687, !688, !689, !690, !691, !692, !695, !696, !697, !698, !699, !700, !701, !702, !703, !704, !713, !719, !720, !721, !724, !727, !728, !729, !730, !731, !732, !733, !734, !737, !740, !741, !744, !745, !748, !749, !750, !751, !752, !753, !754, !755, !758, !761, !764, !767, !770, !773, !776, !780, !783, !786, !789, !790, !793, !796, !799, !802, !805, !808, !811, !814, !817, !820, !823, !826, !829, !832, !833, !836, !837, !840, !843, !846, !847, !850, !853, !856, !859, !862, !863, !864, !865, !866, !867, !868, !869, !870, !871, !872, !873, !874, !875, !876, !877, !878, !879, !880, !881, !882, !885, !888, !891, !894, !897, !900}
!377 = !DIDerivedType(tag: DW_TAG_member, name: "npos", scope: !374, file: !378, line: 101, baseType: !379, flags: DIFlagPublic | DIFlagStaticMember, extraData: i64 -1)
!378 = !DIFile(filename: "C:/Xilinx/2025.1/Vitis/tps/mingw/8.3.0/win64.o/nt\5Clib\5Cgcc\5Cx86_64-w64-mingw32\5C8.3.0\5Cinclude\5Cc++\5Cbits/basic_string.h", directory: "C:\5CUsers\5Cjackh\5CDownloads\5CMatrix_Lab4\5Creshape")
!379 = !DIDerivedType(tag: DW_TAG_const_type, baseType: !380)
!380 = !DIDerivedType(tag: DW_TAG_typedef, name: "size_type", scope: !374, file: !378, line: 88, baseType: !381)
!381 = !DIDerivedType(tag: DW_TAG_typedef, name: "size_type", scope: !383, file: !382, line: 61, baseType: !465)
!382 = !DIFile(filename: "C:/Xilinx/2025.1/Vitis/tps/mingw/8.3.0/win64.o/nt\5Clib\5Cgcc\5Cx86_64-w64-mingw32\5C8.3.0\5Cinclude\5Cc++\5Cext/alloc_traits.h", directory: "C:\5CUsers\5Cjackh\5CDownloads\5CMatrix_Lab4\5Creshape")
!383 = distinct !DICompositeType(tag: DW_TAG_structure_type, name: "__alloc_traits<std::allocator<char>, char>", scope: !384, file: !382, line: 50, size: 8, flags: DIFlagTypePassByValue, elements: !385, templateParams: !487, identifier: "_ZTSN9__gnu_cxx14__alloc_traitsISaIcEcEE")
!384 = !DINamespace(name: "__gnu_cxx", scope: null)
!385 = !{!386, !473, !476, !480, !483, !484, !485, !486}
!386 = !DIDerivedType(tag: DW_TAG_inheritance, scope: !383, baseType: !387)
!387 = distinct !DICompositeType(tag: DW_TAG_structure_type, name: "allocator_traits<std::allocator<char> >", scope: !20, file: !388, line: 384, size: 8, flags: DIFlagTypePassByValue, elements: !389, templateParams: !471, identifier: "_ZTSSt16allocator_traitsISaIcEE")
!388 = !DIFile(filename: "C:/Xilinx/2025.1/Vitis/tps/mingw/8.3.0/win64.o/nt\5Clib\5Cgcc\5Cx86_64-w64-mingw32\5C8.3.0\5Cinclude\5Cc++\5Cbits/alloc_traits.h", directory: "C:\5CUsers\5Cjackh\5CDownloads\5CMatrix_Lab4\5Creshape")
!389 = !{!390, !455, !459, !462, !468}
!390 = !DISubprogram(name: "allocate", linkageName: "_ZNSt16allocator_traitsISaIcEE8allocateERS0_m", scope: !387, file: !388, line: 435, type: !391, isLocal: false, isDefinition: false, scopeLine: 435, flags: DIFlagPrototyped | DIFlagStaticMember, isOptimized: false)
!391 = !DISubroutineType(types: !392)
!392 = !{!393, !394, !454}
!393 = !DIDerivedType(tag: DW_TAG_typedef, name: "pointer", scope: !387, file: !388, line: 392, baseType: !279)
!394 = !DIDerivedType(tag: DW_TAG_reference_type, baseType: !395, size: 64)
!395 = !DIDerivedType(tag: DW_TAG_typedef, name: "allocator_type", scope: !387, file: !388, line: 387, baseType: !396)
!396 = distinct !DICompositeType(tag: DW_TAG_class_type, name: "allocator<char>", scope: !20, file: !397, line: 199, size: 8, flags: DIFlagTypePassByReference, elements: !398, templateParams: !452, identifier: "_ZTSSaIcE")
!397 = !DIFile(filename: "C:/Xilinx/2025.1/Vitis/tps/mingw/8.3.0/win64.o/nt\5Clib\5Cgcc\5Cx86_64-w64-mingw32\5C8.3.0\5Cinclude\5Cc++\5Cbits/allocator.h", directory: "C:\5CUsers\5Cjackh\5CDownloads\5CMatrix_Lab4\5Creshape")
!398 = !{!399, !442, !446, !451}
!399 = !DIDerivedType(tag: DW_TAG_inheritance, scope: !396, baseType: !400, flags: DIFlagPublic)
!400 = !DIDerivedType(tag: DW_TAG_typedef, name: "__allocator_base<char>", scope: !20, file: !401, line: 48, baseType: !402)
!401 = !DIFile(filename: "C:/Xilinx/2025.1/Vitis/tps/mingw/8.3.0/win64.o/nt\5Clib\5Cgcc\5Cx86_64-w64-mingw32\5C8.3.0\5Cinclude\5Cc++\5Cx86_64-w64-mingw32\5Cbits/c++allocator.h", directory: "C:\5CUsers\5Cjackh\5CDownloads\5CMatrix_Lab4\5Creshape")
!402 = distinct !DICompositeType(tag: DW_TAG_class_type, name: "new_allocator<char>", scope: !384, file: !403, line: 58, size: 8, flags: DIFlagTypePassByReference, elements: !404, templateParams: !440, identifier: "_ZTSN9__gnu_cxx13new_allocatorIcEE")
!403 = !DIFile(filename: "C:/Xilinx/2025.1/Vitis/tps/mingw/8.3.0/win64.o/nt\5Clib\5Cgcc\5Cx86_64-w64-mingw32\5C8.3.0\5Cinclude\5Cc++\5Cext/new_allocator.h", directory: "C:\5CUsers\5Cjackh\5CDownloads\5CMatrix_Lab4\5Creshape")
!404 = !{!405, !409, !414, !415, !422, !428, !434, !437}
!405 = !DISubprogram(name: "new_allocator", scope: !402, file: !403, line: 79, type: !406, isLocal: false, isDefinition: false, scopeLine: 79, flags: DIFlagPublic | DIFlagPrototyped, isOptimized: false)
!406 = !DISubroutineType(types: !407)
!407 = !{null, !408}
!408 = !DIDerivedType(tag: DW_TAG_pointer_type, baseType: !402, size: 64, flags: DIFlagArtificial | DIFlagObjectPointer)
!409 = !DISubprogram(name: "new_allocator", scope: !402, file: !403, line: 81, type: !410, isLocal: false, isDefinition: false, scopeLine: 81, flags: DIFlagPublic | DIFlagPrototyped, isOptimized: false)
!410 = !DISubroutineType(types: !411)
!411 = !{null, !408, !412}
!412 = !DIDerivedType(tag: DW_TAG_reference_type, baseType: !413, size: 64)
!413 = !DIDerivedType(tag: DW_TAG_const_type, baseType: !402)
!414 = !DISubprogram(name: "~new_allocator", scope: !402, file: !403, line: 86, type: !406, isLocal: false, isDefinition: false, scopeLine: 86, flags: DIFlagPublic | DIFlagPrototyped, isOptimized: false)
!415 = !DISubprogram(name: "address", linkageName: "_ZNK9__gnu_cxx13new_allocatorIcE7addressERc", scope: !402, file: !403, line: 89, type: !416, isLocal: false, isDefinition: false, scopeLine: 89, flags: DIFlagPublic | DIFlagPrototyped, isOptimized: false)
!416 = !DISubroutineType(types: !417)
!417 = !{!418, !419, !420}
!418 = !DIDerivedType(tag: DW_TAG_typedef, name: "pointer", scope: !402, file: !403, line: 63, baseType: !279)
!419 = !DIDerivedType(tag: DW_TAG_pointer_type, baseType: !413, size: 64, flags: DIFlagArtificial | DIFlagObjectPointer)
!420 = !DIDerivedType(tag: DW_TAG_typedef, name: "reference", scope: !402, file: !403, line: 65, baseType: !421)
!421 = !DIDerivedType(tag: DW_TAG_reference_type, baseType: !202, size: 64)
!422 = !DISubprogram(name: "address", linkageName: "_ZNK9__gnu_cxx13new_allocatorIcE7addressERKc", scope: !402, file: !403, line: 93, type: !423, isLocal: false, isDefinition: false, scopeLine: 93, flags: DIFlagPublic | DIFlagPrototyped, isOptimized: false)
!423 = !DISubroutineType(types: !424)
!424 = !{!425, !419, !426}
!425 = !DIDerivedType(tag: DW_TAG_typedef, name: "const_pointer", scope: !402, file: !403, line: 64, baseType: !223)
!426 = !DIDerivedType(tag: DW_TAG_typedef, name: "const_reference", scope: !402, file: !403, line: 66, baseType: !427)
!427 = !DIDerivedType(tag: DW_TAG_reference_type, baseType: !201, size: 64)
!428 = !DISubprogram(name: "allocate", linkageName: "_ZN9__gnu_cxx13new_allocatorIcE8allocateEmPKv", scope: !402, file: !403, line: 99, type: !429, isLocal: false, isDefinition: false, scopeLine: 99, flags: DIFlagPublic | DIFlagPrototyped, isOptimized: false)
!429 = !DISubroutineType(types: !430)
!430 = !{!418, !408, !431, !432}
!431 = !DIDerivedType(tag: DW_TAG_typedef, name: "size_type", file: !403, line: 61, baseType: !214)
!432 = !DIDerivedType(tag: DW_TAG_pointer_type, baseType: !433, size: 64)
!433 = !DIDerivedType(tag: DW_TAG_const_type, baseType: null)
!434 = !DISubprogram(name: "deallocate", linkageName: "_ZN9__gnu_cxx13new_allocatorIcE10deallocateEPcm", scope: !402, file: !403, line: 116, type: !435, isLocal: false, isDefinition: false, scopeLine: 116, flags: DIFlagPublic | DIFlagPrototyped, isOptimized: false)
!435 = !DISubroutineType(types: !436)
!436 = !{null, !408, !418, !431}
!437 = !DISubprogram(name: "max_size", linkageName: "_ZNK9__gnu_cxx13new_allocatorIcE8max_sizeEv", scope: !402, file: !403, line: 129, type: !438, isLocal: false, isDefinition: false, scopeLine: 129, flags: DIFlagPublic | DIFlagPrototyped, isOptimized: false)
!438 = !DISubroutineType(types: !439)
!439 = !{!431, !419}
!440 = !{!441}
!441 = !DITemplateTypeParameter(name: "_Tp", type: !202)
!442 = !DISubprogram(name: "allocator", scope: !396, file: !397, line: 131, type: !443, isLocal: false, isDefinition: false, scopeLine: 131, flags: DIFlagPublic | DIFlagPrototyped, isOptimized: false)
!443 = !DISubroutineType(types: !444)
!444 = !{null, !445}
!445 = !DIDerivedType(tag: DW_TAG_pointer_type, baseType: !396, size: 64, flags: DIFlagArtificial | DIFlagObjectPointer)
!446 = !DISubprogram(name: "allocator", scope: !396, file: !397, line: 133, type: !447, isLocal: false, isDefinition: false, scopeLine: 133, flags: DIFlagPublic | DIFlagPrototyped, isOptimized: false)
!447 = !DISubroutineType(types: !448)
!448 = !{null, !445, !449}
!449 = !DIDerivedType(tag: DW_TAG_reference_type, baseType: !450, size: 64)
!450 = !DIDerivedType(tag: DW_TAG_const_type, baseType: !396)
!451 = !DISubprogram(name: "~allocator", scope: !396, file: !397, line: 139, type: !443, isLocal: false, isDefinition: false, scopeLine: 139, flags: DIFlagPublic | DIFlagPrototyped, isOptimized: false)
!452 = !{!453}
!453 = !DITemplateTypeParameter(type: !202)
!454 = !DIDerivedType(tag: DW_TAG_typedef, name: "size_type", file: !388, line: 407, baseType: !214)
!455 = !DISubprogram(name: "allocate", linkageName: "_ZNSt16allocator_traitsISaIcEE8allocateERS0_mPKv", scope: !387, file: !388, line: 449, type: !456, isLocal: false, isDefinition: false, scopeLine: 449, flags: DIFlagPrototyped | DIFlagStaticMember, isOptimized: false)
!456 = !DISubroutineType(types: !457)
!457 = !{!393, !394, !454, !458}
!458 = !DIDerivedType(tag: DW_TAG_typedef, name: "const_void_pointer", file: !388, line: 401, baseType: !432)
!459 = !DISubprogram(name: "deallocate", linkageName: "_ZNSt16allocator_traitsISaIcEE10deallocateERS0_Pcm", scope: !387, file: !388, line: 461, type: !460, isLocal: false, isDefinition: false, scopeLine: 461, flags: DIFlagPrototyped | DIFlagStaticMember, isOptimized: false)
!460 = !DISubroutineType(types: !461)
!461 = !{null, !394, !393, !454}
!462 = !DISubprogram(name: "max_size", linkageName: "_ZNSt16allocator_traitsISaIcEE8max_sizeERKS0_", scope: !387, file: !388, line: 495, type: !463, isLocal: false, isDefinition: false, scopeLine: 495, flags: DIFlagPrototyped | DIFlagStaticMember, isOptimized: false)
!463 = !DISubroutineType(types: !464)
!464 = !{!465, !466}
!465 = !DIDerivedType(tag: DW_TAG_typedef, name: "size_type", scope: !387, file: !388, line: 407, baseType: !214)
!466 = !DIDerivedType(tag: DW_TAG_reference_type, baseType: !467, size: 64)
!467 = !DIDerivedType(tag: DW_TAG_const_type, baseType: !395)
!468 = !DISubprogram(name: "select_on_container_copy_construction", linkageName: "_ZNSt16allocator_traitsISaIcEE37select_on_container_copy_constructionERKS0_", scope: !387, file: !388, line: 504, type: !469, isLocal: false, isDefinition: false, scopeLine: 504, flags: DIFlagPrototyped | DIFlagStaticMember, isOptimized: false)
!469 = !DISubroutineType(types: !470)
!470 = !{!395, !466}
!471 = !{!472}
!472 = !DITemplateTypeParameter(name: "_Alloc", type: !396)
!473 = !DISubprogram(name: "_S_select_on_copy", linkageName: "_ZN9__gnu_cxx14__alloc_traitsISaIcEcE17_S_select_on_copyERKS1_", scope: !383, file: !382, line: 94, type: !474, isLocal: false, isDefinition: false, scopeLine: 94, flags: DIFlagPrototyped | DIFlagStaticMember, isOptimized: false)
!474 = !DISubroutineType(types: !475)
!475 = !{!396, !449}
!476 = !DISubprogram(name: "_S_on_swap", linkageName: "_ZN9__gnu_cxx14__alloc_traitsISaIcEcE10_S_on_swapERS1_S3_", scope: !383, file: !382, line: 97, type: !477, isLocal: false, isDefinition: false, scopeLine: 97, flags: DIFlagPrototyped | DIFlagStaticMember, isOptimized: false)
!477 = !DISubroutineType(types: !478)
!478 = !{null, !479, !479}
!479 = !DIDerivedType(tag: DW_TAG_reference_type, baseType: !396, size: 64)
!480 = !DISubprogram(name: "_S_propagate_on_copy_assign", linkageName: "_ZN9__gnu_cxx14__alloc_traitsISaIcEcE27_S_propagate_on_copy_assignEv", scope: !383, file: !382, line: 100, type: !481, isLocal: false, isDefinition: false, scopeLine: 100, flags: DIFlagPrototyped | DIFlagStaticMember, isOptimized: false)
!481 = !DISubroutineType(types: !482)
!482 = !{!318}
!483 = !DISubprogram(name: "_S_propagate_on_move_assign", linkageName: "_ZN9__gnu_cxx14__alloc_traitsISaIcEcE27_S_propagate_on_move_assignEv", scope: !383, file: !382, line: 103, type: !481, isLocal: false, isDefinition: false, scopeLine: 103, flags: DIFlagPrototyped | DIFlagStaticMember, isOptimized: false)
!484 = !DISubprogram(name: "_S_propagate_on_swap", linkageName: "_ZN9__gnu_cxx14__alloc_traitsISaIcEcE20_S_propagate_on_swapEv", scope: !383, file: !382, line: 106, type: !481, isLocal: false, isDefinition: false, scopeLine: 106, flags: DIFlagPrototyped | DIFlagStaticMember, isOptimized: false)
!485 = !DISubprogram(name: "_S_always_equal", linkageName: "_ZN9__gnu_cxx14__alloc_traitsISaIcEcE15_S_always_equalEv", scope: !383, file: !382, line: 109, type: !481, isLocal: false, isDefinition: false, scopeLine: 109, flags: DIFlagPrototyped | DIFlagStaticMember, isOptimized: false)
!486 = !DISubprogram(name: "_S_nothrow_move", linkageName: "_ZN9__gnu_cxx14__alloc_traitsISaIcEcE15_S_nothrow_moveEv", scope: !383, file: !382, line: 112, type: !481, isLocal: false, isDefinition: false, scopeLine: 112, flags: DIFlagPrototyped | DIFlagStaticMember, isOptimized: false)
!487 = !{!472, !453}
!488 = !DIDerivedType(tag: DW_TAG_member, name: "_M_dataplus", scope: !374, file: !378, line: 155, baseType: !489, size: 64)
!489 = distinct !DICompositeType(tag: DW_TAG_structure_type, name: "_Alloc_hider", scope: !374, file: !378, line: 139, size: 64, flags: DIFlagTypePassByReference, elements: !490, identifier: "_ZTSNSt7__cxx1112basic_stringIcSt11char_traitsIcESaIcEE12_Alloc_hiderE")
!490 = !{!491, !497, !500, !504}
!491 = !DIDerivedType(tag: DW_TAG_inheritance, scope: !489, baseType: !492)
!492 = !DIDerivedType(tag: DW_TAG_typedef, name: "allocator_type", scope: !374, file: !378, line: 87, baseType: !493)
!493 = !DIDerivedType(tag: DW_TAG_typedef, name: "_Char_alloc_type", scope: !374, file: !378, line: 80, baseType: !494)
!494 = !DIDerivedType(tag: DW_TAG_typedef, name: "other", scope: !495, file: !382, line: 117, baseType: !496)
!495 = distinct !DICompositeType(tag: DW_TAG_structure_type, name: "rebind<char>", scope: !383, file: !382, line: 116, size: 8, flags: DIFlagTypePassByValue, elements: !4, templateParams: !440, identifier: "_ZTSN9__gnu_cxx14__alloc_traitsISaIcEcE6rebindIcEE")
!496 = !DIDerivedType(tag: DW_TAG_typedef, name: "rebind_alloc<char>", scope: !387, file: !388, line: 422, baseType: !396)
!497 = !DIDerivedType(tag: DW_TAG_member, name: "_M_p", scope: !489, file: !378, line: 152, baseType: !498, size: 64)
!498 = !DIDerivedType(tag: DW_TAG_typedef, name: "pointer", scope: !374, file: !378, line: 92, baseType: !499)
!499 = !DIDerivedType(tag: DW_TAG_typedef, name: "pointer", scope: !383, file: !382, line: 59, baseType: !393)
!500 = !DISubprogram(name: "_Alloc_hider", scope: !489, file: !378, line: 145, type: !501, isLocal: false, isDefinition: false, scopeLine: 145, flags: DIFlagPrototyped, isOptimized: false)
!501 = !DISubroutineType(types: !502)
!502 = !{null, !503, !498, !449}
!503 = !DIDerivedType(tag: DW_TAG_pointer_type, baseType: !489, size: 64, flags: DIFlagArtificial | DIFlagObjectPointer)
!504 = !DISubprogram(name: "_Alloc_hider", scope: !489, file: !378, line: 148, type: !505, isLocal: false, isDefinition: false, scopeLine: 148, flags: DIFlagPrototyped, isOptimized: false)
!505 = !DISubroutineType(types: !506)
!506 = !{null, !503, !498, !507}
!507 = !DIDerivedType(tag: DW_TAG_rvalue_reference_type, baseType: !396, size: 64)
!508 = !DIDerivedType(tag: DW_TAG_member, name: "_M_string_length", scope: !374, file: !378, line: 156, baseType: !380, size: 64, offset: 64)
!509 = !DIDerivedType(tag: DW_TAG_member, scope: !374, file: !378, line: 160, baseType: !510, size: 128, offset: 128)
!510 = distinct !DICompositeType(tag: DW_TAG_union_type, scope: !374, file: !378, line: 160, size: 128, flags: DIFlagTypePassByValue, elements: !511, identifier: "_ZTSNSt7__cxx1112basic_stringIcSt11char_traitsIcESaIcEEUt0_E")
!511 = !{!512, !516}
!512 = !DIDerivedType(tag: DW_TAG_member, name: "_M_local_buf", scope: !510, file: !378, line: 162, baseType: !513, size: 128)
!513 = !DICompositeType(tag: DW_TAG_array_type, baseType: !202, size: 128, elements: !514)
!514 = !{!515}
!515 = !DISubrange(count: 16)
!516 = !DIDerivedType(tag: DW_TAG_member, name: "_M_allocated_capacity", scope: !510, file: !378, line: 163, baseType: !380, size: 64)
!517 = !DISubprogram(name: "_M_data", linkageName: "_ZNSt7__cxx1112basic_stringIcSt11char_traitsIcESaIcEE7_M_dataEPc", scope: !374, file: !378, line: 167, type: !518, isLocal: false, isDefinition: false, scopeLine: 167, flags: DIFlagPrototyped, isOptimized: false)
!518 = !DISubroutineType(types: !519)
!519 = !{null, !520, !498}
!520 = !DIDerivedType(tag: DW_TAG_pointer_type, baseType: !374, size: 64, flags: DIFlagArtificial | DIFlagObjectPointer)
!521 = !DISubprogram(name: "_M_length", linkageName: "_ZNSt7__cxx1112basic_stringIcSt11char_traitsIcESaIcEE9_M_lengthEm", scope: !374, file: !378, line: 171, type: !522, isLocal: false, isDefinition: false, scopeLine: 171, flags: DIFlagPrototyped, isOptimized: false)
!522 = !DISubroutineType(types: !523)
!523 = !{null, !520, !380}
!524 = !DISubprogram(name: "_M_data", linkageName: "_ZNKSt7__cxx1112basic_stringIcSt11char_traitsIcESaIcEE7_M_dataEv", scope: !374, file: !378, line: 175, type: !525, isLocal: false, isDefinition: false, scopeLine: 175, flags: DIFlagPrototyped, isOptimized: false)
!525 = !DISubroutineType(types: !526)
!526 = !{!498, !527}
!527 = !DIDerivedType(tag: DW_TAG_pointer_type, baseType: !528, size: 64, flags: DIFlagArtificial | DIFlagObjectPointer)
!528 = !DIDerivedType(tag: DW_TAG_const_type, baseType: !374)
!529 = !DISubprogram(name: "_M_local_data", linkageName: "_ZNSt7__cxx1112basic_stringIcSt11char_traitsIcESaIcEE13_M_local_dataEv", scope: !374, file: !378, line: 179, type: !530, isLocal: false, isDefinition: false, scopeLine: 179, flags: DIFlagPrototyped, isOptimized: false)
!530 = !DISubroutineType(types: !531)
!531 = !{!498, !520}
!532 = !DISubprogram(name: "_M_local_data", linkageName: "_ZNKSt7__cxx1112basic_stringIcSt11char_traitsIcESaIcEE13_M_local_dataEv", scope: !374, file: !378, line: 189, type: !533, isLocal: false, isDefinition: false, scopeLine: 189, flags: DIFlagPrototyped, isOptimized: false)
!533 = !DISubroutineType(types: !534)
!534 = !{!535, !527}
!535 = !DIDerivedType(tag: DW_TAG_typedef, name: "const_pointer", scope: !374, file: !378, line: 93, baseType: !536)
!536 = !DIDerivedType(tag: DW_TAG_typedef, name: "const_pointer", scope: !383, file: !382, line: 60, baseType: !537)
!537 = !DIDerivedType(tag: DW_TAG_typedef, name: "const_pointer", scope: !387, file: !388, line: 395, baseType: !223)
!538 = !DISubprogram(name: "_M_capacity", linkageName: "_ZNSt7__cxx1112basic_stringIcSt11char_traitsIcESaIcEE11_M_capacityEm", scope: !374, file: !378, line: 199, type: !522, isLocal: false, isDefinition: false, scopeLine: 199, flags: DIFlagPrototyped, isOptimized: false)
!539 = !DISubprogram(name: "_M_set_length", linkageName: "_ZNSt7__cxx1112basic_stringIcSt11char_traitsIcESaIcEE13_M_set_lengthEm", scope: !374, file: !378, line: 203, type: !522, isLocal: false, isDefinition: false, scopeLine: 203, flags: DIFlagPrototyped, isOptimized: false)
!540 = !DISubprogram(name: "_M_is_local", linkageName: "_ZNKSt7__cxx1112basic_stringIcSt11char_traitsIcESaIcEE11_M_is_localEv", scope: !374, file: !378, line: 210, type: !541, isLocal: false, isDefinition: false, scopeLine: 210, flags: DIFlagPrototyped, isOptimized: false)
!541 = !DISubroutineType(types: !542)
!542 = !{!318, !527}
!543 = !DISubprogram(name: "_M_create", linkageName: "_ZNSt7__cxx1112basic_stringIcSt11char_traitsIcESaIcEE9_M_createERmm", scope: !374, file: !378, line: 215, type: !544, isLocal: false, isDefinition: false, scopeLine: 215, flags: DIFlagPrototyped, isOptimized: false)
!544 = !DISubroutineType(types: !545)
!545 = !{!498, !520, !546, !380}
!546 = !DIDerivedType(tag: DW_TAG_reference_type, baseType: !380, size: 64)
!547 = !DISubprogram(name: "_M_dispose", linkageName: "_ZNSt7__cxx1112basic_stringIcSt11char_traitsIcESaIcEE10_M_disposeEv", scope: !374, file: !378, line: 218, type: !548, isLocal: false, isDefinition: false, scopeLine: 218, flags: DIFlagPrototyped, isOptimized: false)
!548 = !DISubroutineType(types: !549)
!549 = !{null, !520}
!550 = !DISubprogram(name: "_M_destroy", linkageName: "_ZNSt7__cxx1112basic_stringIcSt11char_traitsIcESaIcEE10_M_destroyEm", scope: !374, file: !378, line: 225, type: !522, isLocal: false, isDefinition: false, scopeLine: 225, flags: DIFlagPrototyped, isOptimized: false)
!551 = !DISubprogram(name: "_M_construct_aux_2", linkageName: "_ZNSt7__cxx1112basic_stringIcSt11char_traitsIcESaIcEE18_M_construct_aux_2Emc", scope: !374, file: !378, line: 247, type: !552, isLocal: false, isDefinition: false, scopeLine: 247, flags: DIFlagPrototyped, isOptimized: false)
!552 = !DISubroutineType(types: !553)
!553 = !{null, !520, !380, !202}
!554 = !DISubprogram(name: "_M_construct", linkageName: "_ZNSt7__cxx1112basic_stringIcSt11char_traitsIcESaIcEE12_M_constructEmc", scope: !374, file: !378, line: 272, type: !552, isLocal: false, isDefinition: false, scopeLine: 272, flags: DIFlagPrototyped, isOptimized: false)
!555 = !DISubprogram(name: "_M_get_allocator", linkageName: "_ZNSt7__cxx1112basic_stringIcSt11char_traitsIcESaIcEE16_M_get_allocatorEv", scope: !374, file: !378, line: 275, type: !556, isLocal: false, isDefinition: false, scopeLine: 275, flags: DIFlagPrototyped, isOptimized: false)
!556 = !DISubroutineType(types: !557)
!557 = !{!558, !520}
!558 = !DIDerivedType(tag: DW_TAG_reference_type, baseType: !492, size: 64)
!559 = !DISubprogram(name: "_M_get_allocator", linkageName: "_ZNKSt7__cxx1112basic_stringIcSt11char_traitsIcESaIcEE16_M_get_allocatorEv", scope: !374, file: !378, line: 279, type: !560, isLocal: false, isDefinition: false, scopeLine: 279, flags: DIFlagPrototyped, isOptimized: false)
!560 = !DISubroutineType(types: !561)
!561 = !{!562, !527}
!562 = !DIDerivedType(tag: DW_TAG_reference_type, baseType: !563, size: 64)
!563 = !DIDerivedType(tag: DW_TAG_const_type, baseType: !492)
!564 = !DISubprogram(name: "_M_check", linkageName: "_ZNKSt7__cxx1112basic_stringIcSt11char_traitsIcESaIcEE8_M_checkEmPKc", scope: !374, file: !378, line: 299, type: !565, isLocal: false, isDefinition: false, scopeLine: 299, flags: DIFlagPrototyped, isOptimized: false)
!565 = !DISubroutineType(types: !566)
!566 = !{!380, !527, !380, !223}
!567 = !DISubprogram(name: "_M_check_length", linkageName: "_ZNKSt7__cxx1112basic_stringIcSt11char_traitsIcESaIcEE15_M_check_lengthEmmPKc", scope: !374, file: !378, line: 309, type: !568, isLocal: false, isDefinition: false, scopeLine: 309, flags: DIFlagPrototyped, isOptimized: false)
!568 = !DISubroutineType(types: !569)
!569 = !{null, !527, !380, !380, !223}
!570 = !DISubprogram(name: "_M_limit", linkageName: "_ZNKSt7__cxx1112basic_stringIcSt11char_traitsIcESaIcEE8_M_limitEmm", scope: !374, file: !378, line: 318, type: !571, isLocal: false, isDefinition: false, scopeLine: 318, flags: DIFlagPrototyped, isOptimized: false)
!571 = !DISubroutineType(types: !572)
!572 = !{!380, !527, !380, !380}
!573 = !DISubprogram(name: "_M_disjunct", linkageName: "_ZNKSt7__cxx1112basic_stringIcSt11char_traitsIcESaIcEE11_M_disjunctEPKc", scope: !374, file: !378, line: 326, type: !574, isLocal: false, isDefinition: false, scopeLine: 326, flags: DIFlagPrototyped, isOptimized: false)
!574 = !DISubroutineType(types: !575)
!575 = !{!318, !527, !223}
!576 = !DISubprogram(name: "_S_copy", linkageName: "_ZNSt7__cxx1112basic_stringIcSt11char_traitsIcESaIcEE7_S_copyEPcPKcm", scope: !374, file: !378, line: 335, type: !577, isLocal: false, isDefinition: false, scopeLine: 335, flags: DIFlagPrototyped | DIFlagStaticMember, isOptimized: false)
!577 = !DISubroutineType(types: !578)
!578 = !{null, !279, !223, !380}
!579 = !DISubprogram(name: "_S_move", linkageName: "_ZNSt7__cxx1112basic_stringIcSt11char_traitsIcESaIcEE7_S_moveEPcPKcm", scope: !374, file: !378, line: 344, type: !577, isLocal: false, isDefinition: false, scopeLine: 344, flags: DIFlagPrototyped | DIFlagStaticMember, isOptimized: false)
!580 = !DISubprogram(name: "_S_assign", linkageName: "_ZNSt7__cxx1112basic_stringIcSt11char_traitsIcESaIcEE9_S_assignEPcmc", scope: !374, file: !378, line: 353, type: !581, isLocal: false, isDefinition: false, scopeLine: 353, flags: DIFlagPrototyped | DIFlagStaticMember, isOptimized: false)
!581 = !DISubroutineType(types: !582)
!582 = !{null, !279, !380, !202}
!583 = !DISubprogram(name: "_S_copy_chars", linkageName: "_ZNSt7__cxx1112basic_stringIcSt11char_traitsIcESaIcEE13_S_copy_charsEPcN9__gnu_cxx17__normal_iteratorIS5_S4_EES8_", scope: !374, file: !378, line: 372, type: !584, isLocal: false, isDefinition: false, scopeLine: 372, flags: DIFlagPrototyped | DIFlagStaticMember, isOptimized: false)
!584 = !DISubroutineType(types: !585)
!585 = !{null, !279, !586, !586}
!586 = !DIDerivedType(tag: DW_TAG_typedef, name: "iterator", scope: !374, file: !378, line: 94, baseType: !587)
!587 = distinct !DICompositeType(tag: DW_TAG_class_type, name: "__normal_iterator<char *, std::__cxx11::basic_string<char> >", scope: !384, file: !588, line: 764, flags: DIFlagFwdDecl, identifier: "_ZTSN9__gnu_cxx17__normal_iteratorIPcNSt7__cxx1112basic_stringIcSt11char_traitsIcESaIcEEEEE")
!588 = !DIFile(filename: "C:/Xilinx/2025.1/Vitis/tps/mingw/8.3.0/win64.o/nt\5Clib\5Cgcc\5Cx86_64-w64-mingw32\5C8.3.0\5Cinclude\5Cc++\5Cbits/stl_iterator.h", directory: "C:\5CUsers\5Cjackh\5CDownloads\5CMatrix_Lab4\5Creshape")
!589 = !DISubprogram(name: "_S_copy_chars", linkageName: "_ZNSt7__cxx1112basic_stringIcSt11char_traitsIcESaIcEE13_S_copy_charsEPcN9__gnu_cxx17__normal_iteratorIPKcS4_EESA_", scope: !374, file: !378, line: 376, type: !590, isLocal: false, isDefinition: false, scopeLine: 376, flags: DIFlagPrototyped | DIFlagStaticMember, isOptimized: false)
!590 = !DISubroutineType(types: !591)
!591 = !{null, !279, !592, !592}
!592 = !DIDerivedType(tag: DW_TAG_typedef, name: "const_iterator", scope: !374, file: !378, line: 96, baseType: !593)
!593 = distinct !DICompositeType(tag: DW_TAG_class_type, name: "__normal_iterator<const char *, std::__cxx11::basic_string<char> >", scope: !384, file: !588, line: 764, flags: DIFlagFwdDecl, identifier: "_ZTSN9__gnu_cxx17__normal_iteratorIPKcNSt7__cxx1112basic_stringIcSt11char_traitsIcESaIcEEEEE")
!594 = !DISubprogram(name: "_S_copy_chars", linkageName: "_ZNSt7__cxx1112basic_stringIcSt11char_traitsIcESaIcEE13_S_copy_charsEPcS5_S5_", scope: !374, file: !378, line: 381, type: !595, isLocal: false, isDefinition: false, scopeLine: 381, flags: DIFlagPrototyped | DIFlagStaticMember, isOptimized: false)
!595 = !DISubroutineType(types: !596)
!596 = !{null, !279, !279, !279}
!597 = !DISubprogram(name: "_S_copy_chars", linkageName: "_ZNSt7__cxx1112basic_stringIcSt11char_traitsIcESaIcEE13_S_copy_charsEPcPKcS7_", scope: !374, file: !378, line: 385, type: !598, isLocal: false, isDefinition: false, scopeLine: 385, flags: DIFlagPrototyped | DIFlagStaticMember, isOptimized: false)
!598 = !DISubroutineType(types: !599)
!599 = !{null, !279, !223, !223}
!600 = !DISubprogram(name: "_S_compare", linkageName: "_ZNSt7__cxx1112basic_stringIcSt11char_traitsIcESaIcEE10_S_compareEmm", scope: !374, file: !378, line: 390, type: !601, isLocal: false, isDefinition: false, scopeLine: 390, flags: DIFlagPrototyped | DIFlagStaticMember, isOptimized: false)
!601 = !DISubroutineType(types: !602)
!602 = !{!12, !380, !380}
!603 = !DISubprogram(name: "_M_assign", linkageName: "_ZNSt7__cxx1112basic_stringIcSt11char_traitsIcESaIcEE9_M_assignERKS4_", scope: !374, file: !378, line: 403, type: !604, isLocal: false, isDefinition: false, scopeLine: 403, flags: DIFlagPrototyped, isOptimized: false)
!604 = !DISubroutineType(types: !605)
!605 = !{null, !520, !606}
!606 = !DIDerivedType(tag: DW_TAG_reference_type, baseType: !528, size: 64)
!607 = !DISubprogram(name: "_M_mutate", linkageName: "_ZNSt7__cxx1112basic_stringIcSt11char_traitsIcESaIcEE9_M_mutateEmmPKcm", scope: !374, file: !378, line: 406, type: !608, isLocal: false, isDefinition: false, scopeLine: 406, flags: DIFlagPrototyped, isOptimized: false)
!608 = !DISubroutineType(types: !609)
!609 = !{null, !520, !380, !380, !223, !380}
!610 = !DISubprogram(name: "_M_erase", linkageName: "_ZNSt7__cxx1112basic_stringIcSt11char_traitsIcESaIcEE8_M_eraseEmm", scope: !374, file: !378, line: 410, type: !611, isLocal: false, isDefinition: false, scopeLine: 410, flags: DIFlagPrototyped, isOptimized: false)
!611 = !DISubroutineType(types: !612)
!612 = !{null, !520, !380, !380}
!613 = !DISubprogram(name: "basic_string", scope: !374, file: !378, line: 420, type: !548, isLocal: false, isDefinition: false, scopeLine: 420, flags: DIFlagPublic | DIFlagPrototyped, isOptimized: false)
!614 = !DISubprogram(name: "basic_string", scope: !374, file: !378, line: 429, type: !615, isLocal: false, isDefinition: false, scopeLine: 429, flags: DIFlagPublic | DIFlagExplicit | DIFlagPrototyped, isOptimized: false)
!615 = !DISubroutineType(types: !616)
!616 = !{null, !520, !449}
!617 = !DISubprogram(name: "basic_string", scope: !374, file: !378, line: 437, type: !604, isLocal: false, isDefinition: false, scopeLine: 437, flags: DIFlagPublic | DIFlagPrototyped, isOptimized: false)
!618 = !DISubprogram(name: "basic_string", scope: !374, file: !378, line: 450, type: !619, isLocal: false, isDefinition: false, scopeLine: 450, flags: DIFlagPublic | DIFlagPrototyped, isOptimized: false)
!619 = !DISubroutineType(types: !620)
!620 = !{null, !520, !606, !380, !449}
!621 = !DISubprogram(name: "basic_string", scope: !374, file: !378, line: 465, type: !622, isLocal: false, isDefinition: false, scopeLine: 465, flags: DIFlagPublic | DIFlagPrototyped, isOptimized: false)
!622 = !DISubroutineType(types: !623)
!623 = !{null, !520, !606, !380, !380}
!624 = !DISubprogram(name: "basic_string", scope: !374, file: !378, line: 481, type: !625, isLocal: false, isDefinition: false, scopeLine: 481, flags: DIFlagPublic | DIFlagPrototyped, isOptimized: false)
!625 = !DISubroutineType(types: !626)
!626 = !{null, !520, !606, !380, !380, !449}
!627 = !DISubprogram(name: "basic_string", scope: !374, file: !378, line: 499, type: !628, isLocal: false, isDefinition: false, scopeLine: 499, flags: DIFlagPublic | DIFlagPrototyped, isOptimized: false)
!628 = !DISubroutineType(types: !629)
!629 = !{null, !520, !223, !380, !449}
!630 = !DISubprogram(name: "basic_string", scope: !374, file: !378, line: 514, type: !631, isLocal: false, isDefinition: false, scopeLine: 514, flags: DIFlagPublic | DIFlagPrototyped, isOptimized: false)
!631 = !DISubroutineType(types: !632)
!632 = !{null, !520, !223, !449}
!633 = !DISubprogram(name: "basic_string", scope: !374, file: !378, line: 529, type: !634, isLocal: false, isDefinition: false, scopeLine: 529, flags: DIFlagPublic | DIFlagPrototyped, isOptimized: false)
!634 = !DISubroutineType(types: !635)
!635 = !{null, !520, !380, !202, !449}
!636 = !DISubprogram(name: "basic_string", scope: !374, file: !378, line: 541, type: !637, isLocal: false, isDefinition: false, scopeLine: 541, flags: DIFlagPublic | DIFlagPrototyped, isOptimized: false)
!637 = !DISubroutineType(types: !638)
!638 = !{null, !520, !639}
!639 = !DIDerivedType(tag: DW_TAG_rvalue_reference_type, baseType: !374, size: 64)
!640 = !DISubprogram(name: "basic_string", scope: !374, file: !378, line: 568, type: !641, isLocal: false, isDefinition: false, scopeLine: 568, flags: DIFlagPublic | DIFlagPrototyped, isOptimized: false)
!641 = !DISubroutineType(types: !642)
!642 = !{null, !520, !643, !449}
!643 = distinct !DICompositeType(tag: DW_TAG_class_type, name: "initializer_list<char>", scope: !20, file: !644, line: 47, size: 128, align: 64, flags: DIFlagFwdDecl, identifier: "_ZTSSt16initializer_listIcE")
!644 = !DIFile(filename: "C:/Xilinx/2025.1/Vitis/tps/mingw/8.3.0/win64.o/nt\5Clib\5Cgcc\5Cx86_64-w64-mingw32\5C8.3.0\5Cinclude\5Cc++\5Cinitializer_list", directory: "C:\5CUsers\5Cjackh\5CDownloads\5CMatrix_Lab4\5Creshape")
!645 = !DISubprogram(name: "basic_string", scope: !374, file: !378, line: 572, type: !646, isLocal: false, isDefinition: false, scopeLine: 572, flags: DIFlagPublic | DIFlagPrototyped, isOptimized: false)
!646 = !DISubroutineType(types: !647)
!647 = !{null, !520, !606, !449}
!648 = !DISubprogram(name: "basic_string", scope: !374, file: !378, line: 576, type: !649, isLocal: false, isDefinition: false, scopeLine: 576, flags: DIFlagPublic | DIFlagPrototyped, isOptimized: false)
!649 = !DISubroutineType(types: !650)
!650 = !{null, !520, !639, !449}
!651 = !DISubprogram(name: "~basic_string", scope: !374, file: !378, line: 656, type: !548, isLocal: false, isDefinition: false, scopeLine: 656, flags: DIFlagPublic | DIFlagPrototyped, isOptimized: false)
!652 = !DISubprogram(name: "operator=", linkageName: "_ZNSt7__cxx1112basic_stringIcSt11char_traitsIcESaIcEEaSERKS4_", scope: !374, file: !378, line: 664, type: !653, isLocal: false, isDefinition: false, scopeLine: 664, flags: DIFlagPublic | DIFlagPrototyped, isOptimized: false)
!653 = !DISubroutineType(types: !654)
!654 = !{!655, !520, !606}
!655 = !DIDerivedType(tag: DW_TAG_reference_type, baseType: !374, size: 64)
!656 = !DISubprogram(name: "operator=", linkageName: "_ZNSt7__cxx1112basic_stringIcSt11char_traitsIcESaIcEEaSEPKc", scope: !374, file: !378, line: 703, type: !657, isLocal: false, isDefinition: false, scopeLine: 703, flags: DIFlagPublic | DIFlagPrototyped, isOptimized: false)
!657 = !DISubroutineType(types: !658)
!658 = !{!655, !520, !223}
!659 = !DISubprogram(name: "operator=", linkageName: "_ZNSt7__cxx1112basic_stringIcSt11char_traitsIcESaIcEEaSEc", scope: !374, file: !378, line: 714, type: !660, isLocal: false, isDefinition: false, scopeLine: 714, flags: DIFlagPublic | DIFlagPrototyped, isOptimized: false)
!660 = !DISubroutineType(types: !661)
!661 = !{!655, !520, !202}
!662 = !DISubprogram(name: "operator=", linkageName: "_ZNSt7__cxx1112basic_stringIcSt11char_traitsIcESaIcEEaSEOS4_", scope: !374, file: !378, line: 732, type: !663, isLocal: false, isDefinition: false, scopeLine: 732, flags: DIFlagPublic | DIFlagPrototyped, isOptimized: false)
!663 = !DISubroutineType(types: !664)
!664 = !{!655, !520, !639}
!665 = !DISubprogram(name: "operator=", linkageName: "_ZNSt7__cxx1112basic_stringIcSt11char_traitsIcESaIcEEaSESt16initializer_listIcE", scope: !374, file: !378, line: 795, type: !666, isLocal: false, isDefinition: false, scopeLine: 795, flags: DIFlagPublic | DIFlagPrototyped, isOptimized: false)
!666 = !DISubroutineType(types: !667)
!667 = !{!655, !520, !643}
!668 = !DISubprogram(name: "begin", linkageName: "_ZNSt7__cxx1112basic_stringIcSt11char_traitsIcESaIcEE5beginEv", scope: !374, file: !378, line: 826, type: !669, isLocal: false, isDefinition: false, scopeLine: 826, flags: DIFlagPublic | DIFlagPrototyped, isOptimized: false)
!669 = !DISubroutineType(types: !670)
!670 = !{!586, !520}
!671 = !DISubprogram(name: "begin", linkageName: "_ZNKSt7__cxx1112basic_stringIcSt11char_traitsIcESaIcEE5beginEv", scope: !374, file: !378, line: 834, type: !672, isLocal: false, isDefinition: false, scopeLine: 834, flags: DIFlagPublic | DIFlagPrototyped, isOptimized: false)
!672 = !DISubroutineType(types: !673)
!673 = !{!592, !527}
!674 = !DISubprogram(name: "end", linkageName: "_ZNSt7__cxx1112basic_stringIcSt11char_traitsIcESaIcEE3endEv", scope: !374, file: !378, line: 842, type: !669, isLocal: false, isDefinition: false, scopeLine: 842, flags: DIFlagPublic | DIFlagPrototyped, isOptimized: false)
!675 = !DISubprogram(name: "end", linkageName: "_ZNKSt7__cxx1112basic_stringIcSt11char_traitsIcESaIcEE3endEv", scope: !374, file: !378, line: 850, type: !672, isLocal: false, isDefinition: false, scopeLine: 850, flags: DIFlagPublic | DIFlagPrototyped, isOptimized: false)
!676 = !DISubprogram(name: "rbegin", linkageName: "_ZNSt7__cxx1112basic_stringIcSt11char_traitsIcESaIcEE6rbeginEv", scope: !374, file: !378, line: 859, type: !677, isLocal: false, isDefinition: false, scopeLine: 859, flags: DIFlagPublic | DIFlagPrototyped, isOptimized: false)
!677 = !DISubroutineType(types: !678)
!678 = !{!679, !520}
!679 = !DIDerivedType(tag: DW_TAG_typedef, name: "reverse_iterator", scope: !374, file: !378, line: 98, baseType: !680)
!680 = distinct !DICompositeType(tag: DW_TAG_class_type, name: "reverse_iterator<__gnu_cxx::__normal_iterator<char *, std::__cxx11::basic_string<char> > >", scope: !20, file: !588, line: 101, flags: DIFlagFwdDecl, identifier: "_ZTSSt16reverse_iteratorIN9__gnu_cxx17__normal_iteratorIPcNSt7__cxx1112basic_stringIcSt11char_traitsIcESaIcEEEEEE")
!681 = !DISubprogram(name: "rbegin", linkageName: "_ZNKSt7__cxx1112basic_stringIcSt11char_traitsIcESaIcEE6rbeginEv", scope: !374, file: !378, line: 868, type: !682, isLocal: false, isDefinition: false, scopeLine: 868, flags: DIFlagPublic | DIFlagPrototyped, isOptimized: false)
!682 = !DISubroutineType(types: !683)
!683 = !{!684, !527}
!684 = !DIDerivedType(tag: DW_TAG_typedef, name: "const_reverse_iterator", scope: !374, file: !378, line: 97, baseType: !685)
!685 = distinct !DICompositeType(tag: DW_TAG_class_type, name: "reverse_iterator<__gnu_cxx::__normal_iterator<const char *, std::__cxx11::basic_string<char> > >", scope: !20, file: !588, line: 101, flags: DIFlagFwdDecl, identifier: "_ZTSSt16reverse_iteratorIN9__gnu_cxx17__normal_iteratorIPKcNSt7__cxx1112basic_stringIcSt11char_traitsIcESaIcEEEEEE")
!686 = !DISubprogram(name: "rend", linkageName: "_ZNSt7__cxx1112basic_stringIcSt11char_traitsIcESaIcEE4rendEv", scope: !374, file: !378, line: 877, type: !677, isLocal: false, isDefinition: false, scopeLine: 877, flags: DIFlagPublic | DIFlagPrototyped, isOptimized: false)
!687 = !DISubprogram(name: "rend", linkageName: "_ZNKSt7__cxx1112basic_stringIcSt11char_traitsIcESaIcEE4rendEv", scope: !374, file: !378, line: 886, type: !682, isLocal: false, isDefinition: false, scopeLine: 886, flags: DIFlagPublic | DIFlagPrototyped, isOptimized: false)
!688 = !DISubprogram(name: "cbegin", linkageName: "_ZNKSt7__cxx1112basic_stringIcSt11char_traitsIcESaIcEE6cbeginEv", scope: !374, file: !378, line: 895, type: !672, isLocal: false, isDefinition: false, scopeLine: 895, flags: DIFlagPublic | DIFlagPrototyped, isOptimized: false)
!689 = !DISubprogram(name: "cend", linkageName: "_ZNKSt7__cxx1112basic_stringIcSt11char_traitsIcESaIcEE4cendEv", scope: !374, file: !378, line: 903, type: !672, isLocal: false, isDefinition: false, scopeLine: 903, flags: DIFlagPublic | DIFlagPrototyped, isOptimized: false)
!690 = !DISubprogram(name: "crbegin", linkageName: "_ZNKSt7__cxx1112basic_stringIcSt11char_traitsIcESaIcEE7crbeginEv", scope: !374, file: !378, line: 912, type: !682, isLocal: false, isDefinition: false, scopeLine: 912, flags: DIFlagPublic | DIFlagPrototyped, isOptimized: false)
!691 = !DISubprogram(name: "crend", linkageName: "_ZNKSt7__cxx1112basic_stringIcSt11char_traitsIcESaIcEE5crendEv", scope: !374, file: !378, line: 921, type: !682, isLocal: false, isDefinition: false, scopeLine: 921, flags: DIFlagPublic | DIFlagPrototyped, isOptimized: false)
!692 = !DISubprogram(name: "size", linkageName: "_ZNKSt7__cxx1112basic_stringIcSt11char_traitsIcESaIcEE4sizeEv", scope: !374, file: !378, line: 930, type: !693, isLocal: false, isDefinition: false, scopeLine: 930, flags: DIFlagPublic | DIFlagPrototyped, isOptimized: false)
!693 = !DISubroutineType(types: !694)
!694 = !{!380, !527}
!695 = !DISubprogram(name: "length", linkageName: "_ZNKSt7__cxx1112basic_stringIcSt11char_traitsIcESaIcEE6lengthEv", scope: !374, file: !378, line: 936, type: !693, isLocal: false, isDefinition: false, scopeLine: 936, flags: DIFlagPublic | DIFlagPrototyped, isOptimized: false)
!696 = !DISubprogram(name: "max_size", linkageName: "_ZNKSt7__cxx1112basic_stringIcSt11char_traitsIcESaIcEE8max_sizeEv", scope: !374, file: !378, line: 941, type: !693, isLocal: false, isDefinition: false, scopeLine: 941, flags: DIFlagPublic | DIFlagPrototyped, isOptimized: false)
!697 = !DISubprogram(name: "resize", linkageName: "_ZNSt7__cxx1112basic_stringIcSt11char_traitsIcESaIcEE6resizeEmc", scope: !374, file: !378, line: 955, type: !552, isLocal: false, isDefinition: false, scopeLine: 955, flags: DIFlagPublic | DIFlagPrototyped, isOptimized: false)
!698 = !DISubprogram(name: "resize", linkageName: "_ZNSt7__cxx1112basic_stringIcSt11char_traitsIcESaIcEE6resizeEm", scope: !374, file: !378, line: 968, type: !522, isLocal: false, isDefinition: false, scopeLine: 968, flags: DIFlagPublic | DIFlagPrototyped, isOptimized: false)
!699 = !DISubprogram(name: "shrink_to_fit", linkageName: "_ZNSt7__cxx1112basic_stringIcSt11char_traitsIcESaIcEE13shrink_to_fitEv", scope: !374, file: !378, line: 974, type: !548, isLocal: false, isDefinition: false, scopeLine: 974, flags: DIFlagPublic | DIFlagPrototyped, isOptimized: false)
!700 = !DISubprogram(name: "capacity", linkageName: "_ZNKSt7__cxx1112basic_stringIcSt11char_traitsIcESaIcEE8capacityEv", scope: !374, file: !378, line: 993, type: !693, isLocal: false, isDefinition: false, scopeLine: 993, flags: DIFlagPublic | DIFlagPrototyped, isOptimized: false)
!701 = !DISubprogram(name: "reserve", linkageName: "_ZNSt7__cxx1112basic_stringIcSt11char_traitsIcESaIcEE7reserveEm", scope: !374, file: !378, line: 1017, type: !522, isLocal: false, isDefinition: false, scopeLine: 1017, flags: DIFlagPublic | DIFlagPrototyped, isOptimized: false)
!702 = !DISubprogram(name: "clear", linkageName: "_ZNSt7__cxx1112basic_stringIcSt11char_traitsIcESaIcEE5clearEv", scope: !374, file: !378, line: 1023, type: !548, isLocal: false, isDefinition: false, scopeLine: 1023, flags: DIFlagPublic | DIFlagPrototyped, isOptimized: false)
!703 = !DISubprogram(name: "empty", linkageName: "_ZNKSt7__cxx1112basic_stringIcSt11char_traitsIcESaIcEE5emptyEv", scope: !374, file: !378, line: 1031, type: !541, isLocal: false, isDefinition: false, scopeLine: 1031, flags: DIFlagPublic | DIFlagPrototyped, isOptimized: false)
!704 = !DISubprogram(name: "operator[]", linkageName: "_ZNKSt7__cxx1112basic_stringIcSt11char_traitsIcESaIcEEixEm", scope: !374, file: !378, line: 1046, type: !705, isLocal: false, isDefinition: false, scopeLine: 1046, flags: DIFlagPublic | DIFlagPrototyped, isOptimized: false)
!705 = !DISubroutineType(types: !706)
!706 = !{!707, !527, !380}
!707 = !DIDerivedType(tag: DW_TAG_typedef, name: "const_reference", scope: !374, file: !378, line: 91, baseType: !708)
!708 = !DIDerivedType(tag: DW_TAG_typedef, name: "const_reference", scope: !383, file: !382, line: 65, baseType: !709)
!709 = !DIDerivedType(tag: DW_TAG_reference_type, baseType: !710, size: 64)
!710 = !DIDerivedType(tag: DW_TAG_const_type, baseType: !711)
!711 = !DIDerivedType(tag: DW_TAG_typedef, name: "value_type", scope: !383, file: !382, line: 58, baseType: !712)
!712 = !DIDerivedType(tag: DW_TAG_typedef, name: "value_type", scope: !387, file: !388, line: 389, baseType: !202)
!713 = !DISubprogram(name: "operator[]", linkageName: "_ZNSt7__cxx1112basic_stringIcSt11char_traitsIcESaIcEEixEm", scope: !374, file: !378, line: 1063, type: !714, isLocal: false, isDefinition: false, scopeLine: 1063, flags: DIFlagPublic | DIFlagPrototyped, isOptimized: false)
!714 = !DISubroutineType(types: !715)
!715 = !{!716, !520, !380}
!716 = !DIDerivedType(tag: DW_TAG_typedef, name: "reference", scope: !374, file: !378, line: 90, baseType: !717)
!717 = !DIDerivedType(tag: DW_TAG_typedef, name: "reference", scope: !383, file: !382, line: 64, baseType: !718)
!718 = !DIDerivedType(tag: DW_TAG_reference_type, baseType: !711, size: 64)
!719 = !DISubprogram(name: "at", linkageName: "_ZNKSt7__cxx1112basic_stringIcSt11char_traitsIcESaIcEE2atEm", scope: !374, file: !378, line: 1084, type: !705, isLocal: false, isDefinition: false, scopeLine: 1084, flags: DIFlagPublic | DIFlagPrototyped, isOptimized: false)
!720 = !DISubprogram(name: "at", linkageName: "_ZNSt7__cxx1112basic_stringIcSt11char_traitsIcESaIcEE2atEm", scope: !374, file: !378, line: 1105, type: !714, isLocal: false, isDefinition: false, scopeLine: 1105, flags: DIFlagPublic | DIFlagPrototyped, isOptimized: false)
!721 = !DISubprogram(name: "front", linkageName: "_ZNSt7__cxx1112basic_stringIcSt11char_traitsIcESaIcEE5frontEv", scope: !374, file: !378, line: 1121, type: !722, isLocal: false, isDefinition: false, scopeLine: 1121, flags: DIFlagPublic | DIFlagPrototyped, isOptimized: false)
!722 = !DISubroutineType(types: !723)
!723 = !{!716, !520}
!724 = !DISubprogram(name: "front", linkageName: "_ZNKSt7__cxx1112basic_stringIcSt11char_traitsIcESaIcEE5frontEv", scope: !374, file: !378, line: 1132, type: !725, isLocal: false, isDefinition: false, scopeLine: 1132, flags: DIFlagPublic | DIFlagPrototyped, isOptimized: false)
!725 = !DISubroutineType(types: !726)
!726 = !{!707, !527}
!727 = !DISubprogram(name: "back", linkageName: "_ZNSt7__cxx1112basic_stringIcSt11char_traitsIcESaIcEE4backEv", scope: !374, file: !378, line: 1143, type: !722, isLocal: false, isDefinition: false, scopeLine: 1143, flags: DIFlagPublic | DIFlagPrototyped, isOptimized: false)
!728 = !DISubprogram(name: "back", linkageName: "_ZNKSt7__cxx1112basic_stringIcSt11char_traitsIcESaIcEE4backEv", scope: !374, file: !378, line: 1154, type: !725, isLocal: false, isDefinition: false, scopeLine: 1154, flags: DIFlagPublic | DIFlagPrototyped, isOptimized: false)
!729 = !DISubprogram(name: "operator+=", linkageName: "_ZNSt7__cxx1112basic_stringIcSt11char_traitsIcESaIcEEpLERKS4_", scope: !374, file: !378, line: 1168, type: !653, isLocal: false, isDefinition: false, scopeLine: 1168, flags: DIFlagPublic | DIFlagPrototyped, isOptimized: false)
!730 = !DISubprogram(name: "operator+=", linkageName: "_ZNSt7__cxx1112basic_stringIcSt11char_traitsIcESaIcEEpLEPKc", scope: !374, file: !378, line: 1177, type: !657, isLocal: false, isDefinition: false, scopeLine: 1177, flags: DIFlagPublic | DIFlagPrototyped, isOptimized: false)
!731 = !DISubprogram(name: "operator+=", linkageName: "_ZNSt7__cxx1112basic_stringIcSt11char_traitsIcESaIcEEpLEc", scope: !374, file: !378, line: 1186, type: !660, isLocal: false, isDefinition: false, scopeLine: 1186, flags: DIFlagPublic | DIFlagPrototyped, isOptimized: false)
!732 = !DISubprogram(name: "operator+=", linkageName: "_ZNSt7__cxx1112basic_stringIcSt11char_traitsIcESaIcEEpLESt16initializer_listIcE", scope: !374, file: !378, line: 1199, type: !666, isLocal: false, isDefinition: false, scopeLine: 1199, flags: DIFlagPublic | DIFlagPrototyped, isOptimized: false)
!733 = !DISubprogram(name: "append", linkageName: "_ZNSt7__cxx1112basic_stringIcSt11char_traitsIcESaIcEE6appendERKS4_", scope: !374, file: !378, line: 1221, type: !653, isLocal: false, isDefinition: false, scopeLine: 1221, flags: DIFlagPublic | DIFlagPrototyped, isOptimized: false)
!734 = !DISubprogram(name: "append", linkageName: "_ZNSt7__cxx1112basic_stringIcSt11char_traitsIcESaIcEE6appendERKS4_mm", scope: !374, file: !378, line: 1238, type: !735, isLocal: false, isDefinition: false, scopeLine: 1238, flags: DIFlagPublic | DIFlagPrototyped, isOptimized: false)
!735 = !DISubroutineType(types: !736)
!736 = !{!655, !520, !606, !380, !380}
!737 = !DISubprogram(name: "append", linkageName: "_ZNSt7__cxx1112basic_stringIcSt11char_traitsIcESaIcEE6appendEPKcm", scope: !374, file: !378, line: 1250, type: !738, isLocal: false, isDefinition: false, scopeLine: 1250, flags: DIFlagPublic | DIFlagPrototyped, isOptimized: false)
!738 = !DISubroutineType(types: !739)
!739 = !{!655, !520, !223, !380}
!740 = !DISubprogram(name: "append", linkageName: "_ZNSt7__cxx1112basic_stringIcSt11char_traitsIcESaIcEE6appendEPKc", scope: !374, file: !378, line: 1263, type: !657, isLocal: false, isDefinition: false, scopeLine: 1263, flags: DIFlagPublic | DIFlagPrototyped, isOptimized: false)
!741 = !DISubprogram(name: "append", linkageName: "_ZNSt7__cxx1112basic_stringIcSt11char_traitsIcESaIcEE6appendEmc", scope: !374, file: !378, line: 1280, type: !742, isLocal: false, isDefinition: false, scopeLine: 1280, flags: DIFlagPublic | DIFlagPrototyped, isOptimized: false)
!742 = !DISubroutineType(types: !743)
!743 = !{!655, !520, !380, !202}
!744 = !DISubprogram(name: "append", linkageName: "_ZNSt7__cxx1112basic_stringIcSt11char_traitsIcESaIcEE6appendESt16initializer_listIcE", scope: !374, file: !378, line: 1290, type: !666, isLocal: false, isDefinition: false, scopeLine: 1290, flags: DIFlagPublic | DIFlagPrototyped, isOptimized: false)
!745 = !DISubprogram(name: "push_back", linkageName: "_ZNSt7__cxx1112basic_stringIcSt11char_traitsIcESaIcEE9push_backEc", scope: !374, file: !378, line: 1349, type: !746, isLocal: false, isDefinition: false, scopeLine: 1349, flags: DIFlagPublic | DIFlagPrototyped, isOptimized: false)
!746 = !DISubroutineType(types: !747)
!747 = !{null, !520, !202}
!748 = !DISubprogram(name: "assign", linkageName: "_ZNSt7__cxx1112basic_stringIcSt11char_traitsIcESaIcEE6assignERKS4_", scope: !374, file: !378, line: 1364, type: !653, isLocal: false, isDefinition: false, scopeLine: 1364, flags: DIFlagPublic | DIFlagPrototyped, isOptimized: false)
!749 = !DISubprogram(name: "assign", linkageName: "_ZNSt7__cxx1112basic_stringIcSt11char_traitsIcESaIcEE6assignEOS4_", scope: !374, file: !378, line: 1380, type: !663, isLocal: false, isDefinition: false, scopeLine: 1380, flags: DIFlagPublic | DIFlagPrototyped, isOptimized: false)
!750 = !DISubprogram(name: "assign", linkageName: "_ZNSt7__cxx1112basic_stringIcSt11char_traitsIcESaIcEE6assignERKS4_mm", scope: !374, file: !378, line: 1403, type: !735, isLocal: false, isDefinition: false, scopeLine: 1403, flags: DIFlagPublic | DIFlagPrototyped, isOptimized: false)
!751 = !DISubprogram(name: "assign", linkageName: "_ZNSt7__cxx1112basic_stringIcSt11char_traitsIcESaIcEE6assignEPKcm", scope: !374, file: !378, line: 1419, type: !738, isLocal: false, isDefinition: false, scopeLine: 1419, flags: DIFlagPublic | DIFlagPrototyped, isOptimized: false)
!752 = !DISubprogram(name: "assign", linkageName: "_ZNSt7__cxx1112basic_stringIcSt11char_traitsIcESaIcEE6assignEPKc", scope: !374, file: !378, line: 1435, type: !657, isLocal: false, isDefinition: false, scopeLine: 1435, flags: DIFlagPublic | DIFlagPrototyped, isOptimized: false)
!753 = !DISubprogram(name: "assign", linkageName: "_ZNSt7__cxx1112basic_stringIcSt11char_traitsIcESaIcEE6assignEmc", scope: !374, file: !378, line: 1452, type: !742, isLocal: false, isDefinition: false, scopeLine: 1452, flags: DIFlagPublic | DIFlagPrototyped, isOptimized: false)
!754 = !DISubprogram(name: "assign", linkageName: "_ZNSt7__cxx1112basic_stringIcSt11char_traitsIcESaIcEE6assignESt16initializer_listIcE", scope: !374, file: !378, line: 1480, type: !666, isLocal: false, isDefinition: false, scopeLine: 1480, flags: DIFlagPublic | DIFlagPrototyped, isOptimized: false)
!755 = !DISubprogram(name: "insert", linkageName: "_ZNSt7__cxx1112basic_stringIcSt11char_traitsIcESaIcEE6insertEN9__gnu_cxx17__normal_iteratorIPKcS4_EEmc", scope: !374, file: !378, line: 1533, type: !756, isLocal: false, isDefinition: false, scopeLine: 1533, flags: DIFlagPublic | DIFlagPrototyped, isOptimized: false)
!756 = !DISubroutineType(types: !757)
!757 = !{!586, !520, !592, !380, !202}
!758 = !DISubprogram(name: "insert", linkageName: "_ZNSt7__cxx1112basic_stringIcSt11char_traitsIcESaIcEE6insertEN9__gnu_cxx17__normal_iteratorIPcS4_EESt16initializer_listIcE", scope: !374, file: !378, line: 1611, type: !759, isLocal: false, isDefinition: false, scopeLine: 1611, flags: DIFlagPublic | DIFlagPrototyped, isOptimized: false)
!759 = !DISubroutineType(types: !760)
!760 = !{null, !520, !586, !643}
!761 = !DISubprogram(name: "insert", linkageName: "_ZNSt7__cxx1112basic_stringIcSt11char_traitsIcESaIcEE6insertEmRKS4_", scope: !374, file: !378, line: 1631, type: !762, isLocal: false, isDefinition: false, scopeLine: 1631, flags: DIFlagPublic | DIFlagPrototyped, isOptimized: false)
!762 = !DISubroutineType(types: !763)
!763 = !{!655, !520, !380, !606}
!764 = !DISubprogram(name: "insert", linkageName: "_ZNSt7__cxx1112basic_stringIcSt11char_traitsIcESaIcEE6insertEmRKS4_mm", scope: !374, file: !378, line: 1654, type: !765, isLocal: false, isDefinition: false, scopeLine: 1654, flags: DIFlagPublic | DIFlagPrototyped, isOptimized: false)
!765 = !DISubroutineType(types: !766)
!766 = !{!655, !520, !380, !606, !380, !380}
!767 = !DISubprogram(name: "insert", linkageName: "_ZNSt7__cxx1112basic_stringIcSt11char_traitsIcESaIcEE6insertEmPKcm", scope: !374, file: !378, line: 1677, type: !768, isLocal: false, isDefinition: false, scopeLine: 1677, flags: DIFlagPublic | DIFlagPrototyped, isOptimized: false)
!768 = !DISubroutineType(types: !769)
!769 = !{!655, !520, !380, !223, !380}
!770 = !DISubprogram(name: "insert", linkageName: "_ZNSt7__cxx1112basic_stringIcSt11char_traitsIcESaIcEE6insertEmPKc", scope: !374, file: !378, line: 1696, type: !771, isLocal: false, isDefinition: false, scopeLine: 1696, flags: DIFlagPublic | DIFlagPrototyped, isOptimized: false)
!771 = !DISubroutineType(types: !772)
!772 = !{!655, !520, !380, !223}
!773 = !DISubprogram(name: "insert", linkageName: "_ZNSt7__cxx1112basic_stringIcSt11char_traitsIcESaIcEE6insertEmmc", scope: !374, file: !378, line: 1720, type: !774, isLocal: false, isDefinition: false, scopeLine: 1720, flags: DIFlagPublic | DIFlagPrototyped, isOptimized: false)
!774 = !DISubroutineType(types: !775)
!775 = !{!655, !520, !380, !380, !202}
!776 = !DISubprogram(name: "insert", linkageName: "_ZNSt7__cxx1112basic_stringIcSt11char_traitsIcESaIcEE6insertEN9__gnu_cxx17__normal_iteratorIPKcS4_EEc", scope: !374, file: !378, line: 1738, type: !777, isLocal: false, isDefinition: false, scopeLine: 1738, flags: DIFlagPublic | DIFlagPrototyped, isOptimized: false)
!777 = !DISubroutineType(types: !778)
!778 = !{!586, !520, !779, !202}
!779 = !DIDerivedType(tag: DW_TAG_typedef, name: "__const_iterator", scope: !374, file: !378, line: 108, baseType: !592)
!780 = !DISubprogram(name: "erase", linkageName: "_ZNSt7__cxx1112basic_stringIcSt11char_traitsIcESaIcEE5eraseEmm", scope: !374, file: !378, line: 1798, type: !781, isLocal: false, isDefinition: false, scopeLine: 1798, flags: DIFlagPublic | DIFlagPrototyped, isOptimized: false)
!781 = !DISubroutineType(types: !782)
!782 = !{!655, !520, !380, !380}
!783 = !DISubprogram(name: "erase", linkageName: "_ZNSt7__cxx1112basic_stringIcSt11char_traitsIcESaIcEE5eraseEN9__gnu_cxx17__normal_iteratorIPKcS4_EE", scope: !374, file: !378, line: 1817, type: !784, isLocal: false, isDefinition: false, scopeLine: 1817, flags: DIFlagPublic | DIFlagPrototyped, isOptimized: false)
!784 = !DISubroutineType(types: !785)
!785 = !{!586, !520, !779}
!786 = !DISubprogram(name: "erase", linkageName: "_ZNSt7__cxx1112basic_stringIcSt11char_traitsIcESaIcEE5eraseEN9__gnu_cxx17__normal_iteratorIPKcS4_EES9_", scope: !374, file: !378, line: 1836, type: !787, isLocal: false, isDefinition: false, scopeLine: 1836, flags: DIFlagPublic | DIFlagPrototyped, isOptimized: false)
!787 = !DISubroutineType(types: !788)
!788 = !{!586, !520, !779, !779}
!789 = !DISubprogram(name: "pop_back", linkageName: "_ZNSt7__cxx1112basic_stringIcSt11char_traitsIcESaIcEE8pop_backEv", scope: !374, file: !378, line: 1855, type: !548, isLocal: false, isDefinition: false, scopeLine: 1855, flags: DIFlagPublic | DIFlagPrototyped, isOptimized: false)
!790 = !DISubprogram(name: "replace", linkageName: "_ZNSt7__cxx1112basic_stringIcSt11char_traitsIcESaIcEE7replaceEmmRKS4_", scope: !374, file: !378, line: 1880, type: !791, isLocal: false, isDefinition: false, scopeLine: 1880, flags: DIFlagPublic | DIFlagPrototyped, isOptimized: false)
!791 = !DISubroutineType(types: !792)
!792 = !{!655, !520, !380, !380, !606}
!793 = !DISubprogram(name: "replace", linkageName: "_ZNSt7__cxx1112basic_stringIcSt11char_traitsIcESaIcEE7replaceEmmRKS4_mm", scope: !374, file: !378, line: 1902, type: !794, isLocal: false, isDefinition: false, scopeLine: 1902, flags: DIFlagPublic | DIFlagPrototyped, isOptimized: false)
!794 = !DISubroutineType(types: !795)
!795 = !{!655, !520, !380, !380, !606, !380, !380}
!796 = !DISubprogram(name: "replace", linkageName: "_ZNSt7__cxx1112basic_stringIcSt11char_traitsIcESaIcEE7replaceEmmPKcm", scope: !374, file: !378, line: 1927, type: !797, isLocal: false, isDefinition: false, scopeLine: 1927, flags: DIFlagPublic | DIFlagPrototyped, isOptimized: false)
!797 = !DISubroutineType(types: !798)
!798 = !{!655, !520, !380, !380, !223, !380}
!799 = !DISubprogram(name: "replace", linkageName: "_ZNSt7__cxx1112basic_stringIcSt11char_traitsIcESaIcEE7replaceEmmPKc", scope: !374, file: !378, line: 1952, type: !800, isLocal: false, isDefinition: false, scopeLine: 1952, flags: DIFlagPublic | DIFlagPrototyped, isOptimized: false)
!800 = !DISubroutineType(types: !801)
!801 = !{!655, !520, !380, !380, !223}
!802 = !DISubprogram(name: "replace", linkageName: "_ZNSt7__cxx1112basic_stringIcSt11char_traitsIcESaIcEE7replaceEmmmc", scope: !374, file: !378, line: 1976, type: !803, isLocal: false, isDefinition: false, scopeLine: 1976, flags: DIFlagPublic | DIFlagPrototyped, isOptimized: false)
!803 = !DISubroutineType(types: !804)
!804 = !{!655, !520, !380, !380, !380, !202}
!805 = !DISubprogram(name: "replace", linkageName: "_ZNSt7__cxx1112basic_stringIcSt11char_traitsIcESaIcEE7replaceEN9__gnu_cxx17__normal_iteratorIPKcS4_EES9_RKS4_", scope: !374, file: !378, line: 1994, type: !806, isLocal: false, isDefinition: false, scopeLine: 1994, flags: DIFlagPublic | DIFlagPrototyped, isOptimized: false)
!806 = !DISubroutineType(types: !807)
!807 = !{!655, !520, !779, !779, !606}
!808 = !DISubprogram(name: "replace", linkageName: "_ZNSt7__cxx1112basic_stringIcSt11char_traitsIcESaIcEE7replaceEN9__gnu_cxx17__normal_iteratorIPKcS4_EES9_S8_m", scope: !374, file: !378, line: 2014, type: !809, isLocal: false, isDefinition: false, scopeLine: 2014, flags: DIFlagPublic | DIFlagPrototyped, isOptimized: false)
!809 = !DISubroutineType(types: !810)
!810 = !{!655, !520, !779, !779, !223, !380}
!811 = !DISubprogram(name: "replace", linkageName: "_ZNSt7__cxx1112basic_stringIcSt11char_traitsIcESaIcEE7replaceEN9__gnu_cxx17__normal_iteratorIPKcS4_EES9_S8_", scope: !374, file: !378, line: 2036, type: !812, isLocal: false, isDefinition: false, scopeLine: 2036, flags: DIFlagPublic | DIFlagPrototyped, isOptimized: false)
!812 = !DISubroutineType(types: !813)
!813 = !{!655, !520, !779, !779, !223}
!814 = !DISubprogram(name: "replace", linkageName: "_ZNSt7__cxx1112basic_stringIcSt11char_traitsIcESaIcEE7replaceEN9__gnu_cxx17__normal_iteratorIPKcS4_EES9_mc", scope: !374, file: !378, line: 2057, type: !815, isLocal: false, isDefinition: false, scopeLine: 2057, flags: DIFlagPublic | DIFlagPrototyped, isOptimized: false)
!815 = !DISubroutineType(types: !816)
!816 = !{!655, !520, !779, !779, !380, !202}
!817 = !DISubprogram(name: "replace", linkageName: "_ZNSt7__cxx1112basic_stringIcSt11char_traitsIcESaIcEE7replaceEN9__gnu_cxx17__normal_iteratorIPKcS4_EES9_PcSA_", scope: !374, file: !378, line: 2114, type: !818, isLocal: false, isDefinition: false, scopeLine: 2114, flags: DIFlagPublic | DIFlagPrototyped, isOptimized: false)
!818 = !DISubroutineType(types: !819)
!819 = !{!655, !520, !779, !779, !279, !279}
!820 = !DISubprogram(name: "replace", linkageName: "_ZNSt7__cxx1112basic_stringIcSt11char_traitsIcESaIcEE7replaceEN9__gnu_cxx17__normal_iteratorIPKcS4_EES9_S8_S8_", scope: !374, file: !378, line: 2125, type: !821, isLocal: false, isDefinition: false, scopeLine: 2125, flags: DIFlagPublic | DIFlagPrototyped, isOptimized: false)
!821 = !DISubroutineType(types: !822)
!822 = !{!655, !520, !779, !779, !223, !223}
!823 = !DISubprogram(name: "replace", linkageName: "_ZNSt7__cxx1112basic_stringIcSt11char_traitsIcESaIcEE7replaceEN9__gnu_cxx17__normal_iteratorIPKcS4_EES9_NS6_IPcS4_EESB_", scope: !374, file: !378, line: 2136, type: !824, isLocal: false, isDefinition: false, scopeLine: 2136, flags: DIFlagPublic | DIFlagPrototyped, isOptimized: false)
!824 = !DISubroutineType(types: !825)
!825 = !{!655, !520, !779, !779, !586, !586}
!826 = !DISubprogram(name: "replace", linkageName: "_ZNSt7__cxx1112basic_stringIcSt11char_traitsIcESaIcEE7replaceEN9__gnu_cxx17__normal_iteratorIPKcS4_EES9_S9_S9_", scope: !374, file: !378, line: 2147, type: !827, isLocal: false, isDefinition: false, scopeLine: 2147, flags: DIFlagPublic | DIFlagPrototyped, isOptimized: false)
!827 = !DISubroutineType(types: !828)
!828 = !{!655, !520, !779, !779, !592, !592}
!829 = !DISubprogram(name: "replace", linkageName: "_ZNSt7__cxx1112basic_stringIcSt11char_traitsIcESaIcEE7replaceEN9__gnu_cxx17__normal_iteratorIPKcS4_EES9_St16initializer_listIcE", scope: !374, file: !378, line: 2172, type: !830, isLocal: false, isDefinition: false, scopeLine: 2172, flags: DIFlagPublic | DIFlagPrototyped, isOptimized: false)
!830 = !DISubroutineType(types: !831)
!831 = !{!655, !520, !592, !592, !643}
!832 = !DISubprogram(name: "_M_replace_aux", linkageName: "_ZNSt7__cxx1112basic_stringIcSt11char_traitsIcESaIcEE14_M_replace_auxEmmmc", scope: !374, file: !378, line: 2245, type: !803, isLocal: false, isDefinition: false, scopeLine: 2245, flags: DIFlagPrototyped, isOptimized: false)
!833 = !DISubprogram(name: "_M_replace", linkageName: "_ZNSt7__cxx1112basic_stringIcSt11char_traitsIcESaIcEE10_M_replaceEmmPKcm", scope: !374, file: !378, line: 2249, type: !834, isLocal: false, isDefinition: false, scopeLine: 2249, flags: DIFlagPrototyped, isOptimized: false)
!834 = !DISubroutineType(types: !835)
!835 = !{!655, !520, !380, !380, !223, !379}
!836 = !DISubprogram(name: "_M_append", linkageName: "_ZNSt7__cxx1112basic_stringIcSt11char_traitsIcESaIcEE9_M_appendEPKcm", scope: !374, file: !378, line: 2253, type: !738, isLocal: false, isDefinition: false, scopeLine: 2253, flags: DIFlagPrototyped, isOptimized: false)
!837 = !DISubprogram(name: "copy", linkageName: "_ZNKSt7__cxx1112basic_stringIcSt11char_traitsIcESaIcEE4copyEPcmm", scope: !374, file: !378, line: 2270, type: !838, isLocal: false, isDefinition: false, scopeLine: 2270, flags: DIFlagPublic | DIFlagPrototyped, isOptimized: false)
!838 = !DISubroutineType(types: !839)
!839 = !{!380, !527, !279, !380, !380}
!840 = !DISubprogram(name: "swap", linkageName: "_ZNSt7__cxx1112basic_stringIcSt11char_traitsIcESaIcEE4swapERS4_", scope: !374, file: !378, line: 2280, type: !841, isLocal: false, isDefinition: false, scopeLine: 2280, flags: DIFlagPublic | DIFlagPrototyped, isOptimized: false)
!841 = !DISubroutineType(types: !842)
!842 = !{null, !520, !655}
!843 = !DISubprogram(name: "c_str", linkageName: "_ZNKSt7__cxx1112basic_stringIcSt11char_traitsIcESaIcEE5c_strEv", scope: !374, file: !378, line: 2290, type: !844, isLocal: false, isDefinition: false, scopeLine: 2290, flags: DIFlagPublic | DIFlagPrototyped, isOptimized: false)
!844 = !DISubroutineType(types: !845)
!845 = !{!223, !527}
!846 = !DISubprogram(name: "data", linkageName: "_ZNKSt7__cxx1112basic_stringIcSt11char_traitsIcESaIcEE4dataEv", scope: !374, file: !378, line: 2302, type: !844, isLocal: false, isDefinition: false, scopeLine: 2302, flags: DIFlagPublic | DIFlagPrototyped, isOptimized: false)
!847 = !DISubprogram(name: "get_allocator", linkageName: "_ZNKSt7__cxx1112basic_stringIcSt11char_traitsIcESaIcEE13get_allocatorEv", scope: !374, file: !378, line: 2321, type: !848, isLocal: false, isDefinition: false, scopeLine: 2321, flags: DIFlagPublic | DIFlagPrototyped, isOptimized: false)
!848 = !DISubroutineType(types: !849)
!849 = !{!492, !527}
!850 = !DISubprogram(name: "find", linkageName: "_ZNKSt7__cxx1112basic_stringIcSt11char_traitsIcESaIcEE4findEPKcmm", scope: !374, file: !378, line: 2337, type: !851, isLocal: false, isDefinition: false, scopeLine: 2337, flags: DIFlagPublic | DIFlagPrototyped, isOptimized: false)
!851 = !DISubroutineType(types: !852)
!852 = !{!380, !527, !223, !380, !380}
!853 = !DISubprogram(name: "find", linkageName: "_ZNKSt7__cxx1112basic_stringIcSt11char_traitsIcESaIcEE4findERKS4_m", scope: !374, file: !378, line: 2351, type: !854, isLocal: false, isDefinition: false, scopeLine: 2351, flags: DIFlagPublic | DIFlagPrototyped, isOptimized: false)
!854 = !DISubroutineType(types: !855)
!855 = !{!380, !527, !606, !380}
!856 = !DISubprogram(name: "find", linkageName: "_ZNKSt7__cxx1112basic_stringIcSt11char_traitsIcESaIcEE4findEPKcm", scope: !374, file: !378, line: 2383, type: !857, isLocal: false, isDefinition: false, scopeLine: 2383, flags: DIFlagPublic | DIFlagPrototyped, isOptimized: false)
!857 = !DISubroutineType(types: !858)
!858 = !{!380, !527, !223, !380}
!859 = !DISubprogram(name: "find", linkageName: "_ZNKSt7__cxx1112basic_stringIcSt11char_traitsIcESaIcEE4findEcm", scope: !374, file: !378, line: 2400, type: !860, isLocal: false, isDefinition: false, scopeLine: 2400, flags: DIFlagPublic | DIFlagPrototyped, isOptimized: false)
!860 = !DISubroutineType(types: !861)
!861 = !{!380, !527, !202, !380}
!862 = !DISubprogram(name: "rfind", linkageName: "_ZNKSt7__cxx1112basic_stringIcSt11char_traitsIcESaIcEE5rfindERKS4_m", scope: !374, file: !378, line: 2413, type: !854, isLocal: false, isDefinition: false, scopeLine: 2413, flags: DIFlagPublic | DIFlagPrototyped, isOptimized: false)
!863 = !DISubprogram(name: "rfind", linkageName: "_ZNKSt7__cxx1112basic_stringIcSt11char_traitsIcESaIcEE5rfindEPKcmm", scope: !374, file: !378, line: 2447, type: !851, isLocal: false, isDefinition: false, scopeLine: 2447, flags: DIFlagPublic | DIFlagPrototyped, isOptimized: false)
!864 = !DISubprogram(name: "rfind", linkageName: "_ZNKSt7__cxx1112basic_stringIcSt11char_traitsIcESaIcEE5rfindEPKcm", scope: !374, file: !378, line: 2461, type: !857, isLocal: false, isDefinition: false, scopeLine: 2461, flags: DIFlagPublic | DIFlagPrototyped, isOptimized: false)
!865 = !DISubprogram(name: "rfind", linkageName: "_ZNKSt7__cxx1112basic_stringIcSt11char_traitsIcESaIcEE5rfindEcm", scope: !374, file: !378, line: 2478, type: !860, isLocal: false, isDefinition: false, scopeLine: 2478, flags: DIFlagPublic | DIFlagPrototyped, isOptimized: false)
!866 = !DISubprogram(name: "find_first_of", linkageName: "_ZNKSt7__cxx1112basic_stringIcSt11char_traitsIcESaIcEE13find_first_ofERKS4_m", scope: !374, file: !378, line: 2492, type: !854, isLocal: false, isDefinition: false, scopeLine: 2492, flags: DIFlagPublic | DIFlagPrototyped, isOptimized: false)
!867 = !DISubprogram(name: "find_first_of", linkageName: "_ZNKSt7__cxx1112basic_stringIcSt11char_traitsIcESaIcEE13find_first_ofEPKcmm", scope: !374, file: !378, line: 2527, type: !851, isLocal: false, isDefinition: false, scopeLine: 2527, flags: DIFlagPublic | DIFlagPrototyped, isOptimized: false)
!868 = !DISubprogram(name: "find_first_of", linkageName: "_ZNKSt7__cxx1112basic_stringIcSt11char_traitsIcESaIcEE13find_first_ofEPKcm", scope: !374, file: !378, line: 2541, type: !857, isLocal: false, isDefinition: false, scopeLine: 2541, flags: DIFlagPublic | DIFlagPrototyped, isOptimized: false)
!869 = !DISubprogram(name: "find_first_of", linkageName: "_ZNKSt7__cxx1112basic_stringIcSt11char_traitsIcESaIcEE13find_first_ofEcm", scope: !374, file: !378, line: 2561, type: !860, isLocal: false, isDefinition: false, scopeLine: 2561, flags: DIFlagPublic | DIFlagPrototyped, isOptimized: false)
!870 = !DISubprogram(name: "find_last_of", linkageName: "_ZNKSt7__cxx1112basic_stringIcSt11char_traitsIcESaIcEE12find_last_ofERKS4_m", scope: !374, file: !378, line: 2576, type: !854, isLocal: false, isDefinition: false, scopeLine: 2576, flags: DIFlagPublic | DIFlagPrototyped, isOptimized: false)
!871 = !DISubprogram(name: "find_last_of", linkageName: "_ZNKSt7__cxx1112basic_stringIcSt11char_traitsIcESaIcEE12find_last_ofEPKcmm", scope: !374, file: !378, line: 2611, type: !851, isLocal: false, isDefinition: false, scopeLine: 2611, flags: DIFlagPublic | DIFlagPrototyped, isOptimized: false)
!872 = !DISubprogram(name: "find_last_of", linkageName: "_ZNKSt7__cxx1112basic_stringIcSt11char_traitsIcESaIcEE12find_last_ofEPKcm", scope: !374, file: !378, line: 2625, type: !857, isLocal: false, isDefinition: false, scopeLine: 2625, flags: DIFlagPublic | DIFlagPrototyped, isOptimized: false)
!873 = !DISubprogram(name: "find_last_of", linkageName: "_ZNKSt7__cxx1112basic_stringIcSt11char_traitsIcESaIcEE12find_last_ofEcm", scope: !374, file: !378, line: 2645, type: !860, isLocal: false, isDefinition: false, scopeLine: 2645, flags: DIFlagPublic | DIFlagPrototyped, isOptimized: false)
!874 = !DISubprogram(name: "find_first_not_of", linkageName: "_ZNKSt7__cxx1112basic_stringIcSt11char_traitsIcESaIcEE17find_first_not_ofERKS4_m", scope: !374, file: !378, line: 2659, type: !854, isLocal: false, isDefinition: false, scopeLine: 2659, flags: DIFlagPublic | DIFlagPrototyped, isOptimized: false)
!875 = !DISubprogram(name: "find_first_not_of", linkageName: "_ZNKSt7__cxx1112basic_stringIcSt11char_traitsIcESaIcEE17find_first_not_ofEPKcmm", scope: !374, file: !378, line: 2694, type: !851, isLocal: false, isDefinition: false, scopeLine: 2694, flags: DIFlagPublic | DIFlagPrototyped, isOptimized: false)
!876 = !DISubprogram(name: "find_first_not_of", linkageName: "_ZNKSt7__cxx1112basic_stringIcSt11char_traitsIcESaIcEE17find_first_not_ofEPKcm", scope: !374, file: !378, line: 2708, type: !857, isLocal: false, isDefinition: false, scopeLine: 2708, flags: DIFlagPublic | DIFlagPrototyped, isOptimized: false)
!877 = !DISubprogram(name: "find_first_not_of", linkageName: "_ZNKSt7__cxx1112basic_stringIcSt11char_traitsIcESaIcEE17find_first_not_ofEcm", scope: !374, file: !378, line: 2726, type: !860, isLocal: false, isDefinition: false, scopeLine: 2726, flags: DIFlagPublic | DIFlagPrototyped, isOptimized: false)
!878 = !DISubprogram(name: "find_last_not_of", linkageName: "_ZNKSt7__cxx1112basic_stringIcSt11char_traitsIcESaIcEE16find_last_not_ofERKS4_m", scope: !374, file: !378, line: 2741, type: !854, isLocal: false, isDefinition: false, scopeLine: 2741, flags: DIFlagPublic | DIFlagPrototyped, isOptimized: false)
!879 = !DISubprogram(name: "find_last_not_of", linkageName: "_ZNKSt7__cxx1112basic_stringIcSt11char_traitsIcESaIcEE16find_last_not_ofEPKcmm", scope: !374, file: !378, line: 2776, type: !851, isLocal: false, isDefinition: false, scopeLine: 2776, flags: DIFlagPublic | DIFlagPrototyped, isOptimized: false)
!880 = !DISubprogram(name: "find_last_not_of", linkageName: "_ZNKSt7__cxx1112basic_stringIcSt11char_traitsIcESaIcEE16find_last_not_ofEPKcm", scope: !374, file: !378, line: 2790, type: !857, isLocal: false, isDefinition: false, scopeLine: 2790, flags: DIFlagPublic | DIFlagPrototyped, isOptimized: false)
!881 = !DISubprogram(name: "find_last_not_of", linkageName: "_ZNKSt7__cxx1112basic_stringIcSt11char_traitsIcESaIcEE16find_last_not_ofEcm", scope: !374, file: !378, line: 2808, type: !860, isLocal: false, isDefinition: false, scopeLine: 2808, flags: DIFlagPublic | DIFlagPrototyped, isOptimized: false)
!882 = !DISubprogram(name: "substr", linkageName: "_ZNKSt7__cxx1112basic_stringIcSt11char_traitsIcESaIcEE6substrEmm", scope: !374, file: !378, line: 2824, type: !883, isLocal: false, isDefinition: false, scopeLine: 2824, flags: DIFlagPublic | DIFlagPrototyped, isOptimized: false)
!883 = !DISubroutineType(types: !884)
!884 = !{!374, !527, !380, !380}
!885 = !DISubprogram(name: "compare", linkageName: "_ZNKSt7__cxx1112basic_stringIcSt11char_traitsIcESaIcEE7compareERKS4_", scope: !374, file: !378, line: 2843, type: !886, isLocal: false, isDefinition: false, scopeLine: 2843, flags: DIFlagPublic | DIFlagPrototyped, isOptimized: false)
!886 = !DISubroutineType(types: !887)
!887 = !{!12, !527, !606}
!888 = !DISubprogram(name: "compare", linkageName: "_ZNKSt7__cxx1112basic_stringIcSt11char_traitsIcESaIcEE7compareEmmRKS4_", scope: !374, file: !378, line: 2936, type: !889, isLocal: false, isDefinition: false, scopeLine: 2936, flags: DIFlagPublic | DIFlagPrototyped, isOptimized: false)
!889 = !DISubroutineType(types: !890)
!890 = !{!12, !527, !380, !380, !606}
!891 = !DISubprogram(name: "compare", linkageName: "_ZNKSt7__cxx1112basic_stringIcSt11char_traitsIcESaIcEE7compareEmmRKS4_mm", scope: !374, file: !378, line: 2962, type: !892, isLocal: false, isDefinition: false, scopeLine: 2962, flags: DIFlagPublic | DIFlagPrototyped, isOptimized: false)
!892 = !DISubroutineType(types: !893)
!893 = !{!12, !527, !380, !380, !606, !380, !380}
!894 = !DISubprogram(name: "compare", linkageName: "_ZNKSt7__cxx1112basic_stringIcSt11char_traitsIcESaIcEE7compareEPKc", scope: !374, file: !378, line: 2980, type: !895, isLocal: false, isDefinition: false, scopeLine: 2980, flags: DIFlagPublic | DIFlagPrototyped, isOptimized: false)
!895 = !DISubroutineType(types: !896)
!896 = !{!12, !527, !223}
!897 = !DISubprogram(name: "compare", linkageName: "_ZNKSt7__cxx1112basic_stringIcSt11char_traitsIcESaIcEE7compareEmmPKc", scope: !374, file: !378, line: 3004, type: !898, isLocal: false, isDefinition: false, scopeLine: 3004, flags: DIFlagPublic | DIFlagPrototyped, isOptimized: false)
!898 = !DISubroutineType(types: !899)
!899 = !{!12, !527, !380, !380, !223}
!900 = !DISubprogram(name: "compare", linkageName: "_ZNKSt7__cxx1112basic_stringIcSt11char_traitsIcESaIcEE7compareEmmPKcm", scope: !374, file: !378, line: 3031, type: !901, isLocal: false, isDefinition: false, scopeLine: 3031, flags: DIFlagPublic | DIFlagPrototyped, isOptimized: false)
!901 = !DISubroutineType(types: !902)
!902 = !{!12, !527, !380, !380, !223, !380}
!903 = !{!904, !905, !472}
!904 = !DITemplateTypeParameter(name: "_CharT", type: !202)
!905 = !DITemplateTypeParameter(name: "_Traits", type: !906)
!906 = distinct !DICompositeType(tag: DW_TAG_structure_type, name: "char_traits<char>", scope: !20, file: !907, line: 277, size: 8, flags: DIFlagTypePassByValue, elements: !908, templateParams: !956, identifier: "_ZTSSt11char_traitsIcE")
!907 = !DIFile(filename: "C:/Xilinx/2025.1/Vitis/tps/mingw/8.3.0/win64.o/nt\5Clib\5Cgcc\5Cx86_64-w64-mingw32\5C8.3.0\5Cinclude\5Cc++\5Cbits/char_traits.h", directory: "C:\5CUsers\5Cjackh\5CDownloads\5CMatrix_Lab4\5Creshape")
!908 = !{!909, !916, !919, !920, !924, !927, !930, !934, !935, !938, !944, !947, !950, !953}
!909 = !DISubprogram(name: "assign", linkageName: "_ZNSt11char_traitsIcE6assignERcRKc", scope: !906, file: !907, line: 286, type: !910, isLocal: false, isDefinition: false, scopeLine: 286, flags: DIFlagPrototyped | DIFlagStaticMember, isOptimized: false)
!910 = !DISubroutineType(types: !911)
!911 = !{null, !912, !914}
!912 = !DIDerivedType(tag: DW_TAG_reference_type, baseType: !913, size: 64)
!913 = !DIDerivedType(tag: DW_TAG_typedef, name: "char_type", scope: !906, file: !907, line: 279, baseType: !202)
!914 = !DIDerivedType(tag: DW_TAG_reference_type, baseType: !915, size: 64)
!915 = !DIDerivedType(tag: DW_TAG_const_type, baseType: !913)
!916 = !DISubprogram(name: "eq", linkageName: "_ZNSt11char_traitsIcE2eqERKcS2_", scope: !906, file: !907, line: 290, type: !917, isLocal: false, isDefinition: false, scopeLine: 290, flags: DIFlagPrototyped | DIFlagStaticMember, isOptimized: false)
!917 = !DISubroutineType(types: !918)
!918 = !{!318, !914, !914}
!919 = !DISubprogram(name: "lt", linkageName: "_ZNSt11char_traitsIcE2ltERKcS2_", scope: !906, file: !907, line: 294, type: !917, isLocal: false, isDefinition: false, scopeLine: 294, flags: DIFlagPrototyped | DIFlagStaticMember, isOptimized: false)
!920 = !DISubprogram(name: "compare", linkageName: "_ZNSt11char_traitsIcE7compareEPKcS2_m", scope: !906, file: !907, line: 302, type: !921, isLocal: false, isDefinition: false, scopeLine: 302, flags: DIFlagPrototyped | DIFlagStaticMember, isOptimized: false)
!921 = !DISubroutineType(types: !922)
!922 = !{!12, !923, !923, !214}
!923 = !DIDerivedType(tag: DW_TAG_pointer_type, baseType: !915, size: 64)
!924 = !DISubprogram(name: "length", linkageName: "_ZNSt11char_traitsIcE6lengthEPKc", scope: !906, file: !907, line: 316, type: !925, isLocal: false, isDefinition: false, scopeLine: 316, flags: DIFlagPrototyped | DIFlagStaticMember, isOptimized: false)
!925 = !DISubroutineType(types: !926)
!926 = !{!214, !923}
!927 = !DISubprogram(name: "find", linkageName: "_ZNSt11char_traitsIcE4findEPKcmRS1_", scope: !906, file: !907, line: 326, type: !928, isLocal: false, isDefinition: false, scopeLine: 326, flags: DIFlagPrototyped | DIFlagStaticMember, isOptimized: false)
!928 = !DISubroutineType(types: !929)
!929 = !{!923, !923, !214, !914}
!930 = !DISubprogram(name: "move", linkageName: "_ZNSt11char_traitsIcE4moveEPcPKcm", scope: !906, file: !907, line: 340, type: !931, isLocal: false, isDefinition: false, scopeLine: 340, flags: DIFlagPrototyped | DIFlagStaticMember, isOptimized: false)
!931 = !DISubroutineType(types: !932)
!932 = !{!933, !933, !923, !214}
!933 = !DIDerivedType(tag: DW_TAG_pointer_type, baseType: !913, size: 64)
!934 = !DISubprogram(name: "copy", linkageName: "_ZNSt11char_traitsIcE4copyEPcPKcm", scope: !906, file: !907, line: 348, type: !931, isLocal: false, isDefinition: false, scopeLine: 348, flags: DIFlagPrototyped | DIFlagStaticMember, isOptimized: false)
!935 = !DISubprogram(name: "assign", linkageName: "_ZNSt11char_traitsIcE6assignEPcmc", scope: !906, file: !907, line: 356, type: !936, isLocal: false, isDefinition: false, scopeLine: 356, flags: DIFlagPrototyped | DIFlagStaticMember, isOptimized: false)
!936 = !DISubroutineType(types: !937)
!937 = !{!933, !933, !214, !913}
!938 = !DISubprogram(name: "to_char_type", linkageName: "_ZNSt11char_traitsIcE12to_char_typeERKi", scope: !906, file: !907, line: 364, type: !939, isLocal: false, isDefinition: false, scopeLine: 364, flags: DIFlagPrototyped | DIFlagStaticMember, isOptimized: false)
!939 = !DISubroutineType(types: !940)
!940 = !{!913, !941}
!941 = !DIDerivedType(tag: DW_TAG_reference_type, baseType: !942, size: 64)
!942 = !DIDerivedType(tag: DW_TAG_const_type, baseType: !943)
!943 = !DIDerivedType(tag: DW_TAG_typedef, name: "int_type", scope: !906, file: !907, line: 280, baseType: !12)
!944 = !DISubprogram(name: "to_int_type", linkageName: "_ZNSt11char_traitsIcE11to_int_typeERKc", scope: !906, file: !907, line: 370, type: !945, isLocal: false, isDefinition: false, scopeLine: 370, flags: DIFlagPrototyped | DIFlagStaticMember, isOptimized: false)
!945 = !DISubroutineType(types: !946)
!946 = !{!943, !914}
!947 = !DISubprogram(name: "eq_int_type", linkageName: "_ZNSt11char_traitsIcE11eq_int_typeERKiS2_", scope: !906, file: !907, line: 374, type: !948, isLocal: false, isDefinition: false, scopeLine: 374, flags: DIFlagPrototyped | DIFlagStaticMember, isOptimized: false)
!948 = !DISubroutineType(types: !949)
!949 = !{!318, !941, !941}
!950 = !DISubprogram(name: "eof", linkageName: "_ZNSt11char_traitsIcE3eofEv", scope: !906, file: !907, line: 378, type: !951, isLocal: false, isDefinition: false, scopeLine: 378, flags: DIFlagPrototyped | DIFlagStaticMember, isOptimized: false)
!951 = !DISubroutineType(types: !952)
!952 = !{!943}
!953 = !DISubprogram(name: "not_eof", linkageName: "_ZNSt11char_traitsIcE7not_eofERKi", scope: !906, file: !907, line: 382, type: !954, isLocal: false, isDefinition: false, scopeLine: 382, flags: DIFlagPrototyped | DIFlagStaticMember, isOptimized: false)
!954 = !DISubroutineType(types: !955)
!955 = !{!943, !941}
!956 = !{!904}
!957 = !DISubprogram(name: "locale", scope: !169, file: !170, line: 177, type: !958, isLocal: false, isDefinition: false, scopeLine: 177, flags: DIFlagPublic | DIFlagPrototyped, isOptimized: false)
!958 = !DISubroutineType(types: !959)
!959 = !{null, !354, !358, !369, !174}
!960 = !DISubprogram(name: "locale", scope: !169, file: !170, line: 192, type: !961, isLocal: false, isDefinition: false, scopeLine: 192, flags: DIFlagPublic | DIFlagPrototyped, isOptimized: false)
!961 = !DISubroutineType(types: !962)
!962 = !{null, !354, !358, !358, !174}
!963 = !DISubprogram(name: "~locale", scope: !169, file: !170, line: 209, type: !352, isLocal: false, isDefinition: false, scopeLine: 209, flags: DIFlagPublic | DIFlagPrototyped, isOptimized: false)
!964 = !DISubprogram(name: "operator=", linkageName: "_ZNSt6localeaSERKS_", scope: !169, file: !170, line: 220, type: !965, isLocal: false, isDefinition: false, scopeLine: 220, flags: DIFlagPublic | DIFlagPrototyped, isOptimized: false)
!965 = !DISubroutineType(types: !966)
!966 = !{!358, !354, !358}
!967 = !DISubprogram(name: "name", linkageName: "_ZNKSt6locale4nameB5cxx11Ev", scope: !169, file: !170, line: 245, type: !968, isLocal: false, isDefinition: false, scopeLine: 245, flags: DIFlagPublic | DIFlagPrototyped, isOptimized: false)
!968 = !DISubroutineType(types: !969)
!969 = !{!371, !970}
!970 = !DIDerivedType(tag: DW_TAG_pointer_type, baseType: !359, size: 64, flags: DIFlagArtificial | DIFlagObjectPointer)
!971 = !DISubprogram(name: "operator==", linkageName: "_ZNKSt6localeeqERKS_", scope: !169, file: !170, line: 255, type: !972, isLocal: false, isDefinition: false, scopeLine: 255, flags: DIFlagPublic | DIFlagPrototyped, isOptimized: false)
!972 = !DISubroutineType(types: !973)
!973 = !{!318, !970, !358}
!974 = !DISubprogram(name: "operator!=", linkageName: "_ZNKSt6localeneERKS_", scope: !169, file: !170, line: 264, type: !972, isLocal: false, isDefinition: false, scopeLine: 264, flags: DIFlagPublic | DIFlagPrototyped, isOptimized: false)
!975 = !DISubprogram(name: "global", linkageName: "_ZNSt6locale6globalERKS_", scope: !169, file: !170, line: 299, type: !976, isLocal: false, isDefinition: false, scopeLine: 299, flags: DIFlagPublic | DIFlagPrototyped | DIFlagStaticMember, isOptimized: false)
!976 = !DISubroutineType(types: !977)
!977 = !{!169, !358}
!978 = !DISubprogram(name: "classic", linkageName: "_ZNSt6locale7classicEv", scope: !169, file: !170, line: 305, type: !979, isLocal: false, isDefinition: false, scopeLine: 305, flags: DIFlagPublic | DIFlagPrototyped | DIFlagStaticMember, isOptimized: false)
!979 = !DISubroutineType(types: !980)
!980 = !{!358}
!981 = !DISubprogram(name: "locale", scope: !169, file: !170, line: 340, type: !982, isLocal: false, isDefinition: false, scopeLine: 340, flags: DIFlagExplicit | DIFlagPrototyped, isOptimized: false)
!982 = !DISubroutineType(types: !983)
!983 = !{null, !354, !183}
!984 = !DISubprogram(name: "_S_initialize", linkageName: "_ZNSt6locale13_S_initializeEv", scope: !169, file: !170, line: 343, type: !208, isLocal: false, isDefinition: false, scopeLine: 343, flags: DIFlagPrototyped | DIFlagStaticMember, isOptimized: false)
!985 = !DISubprogram(name: "_S_initialize_once", linkageName: "_ZNSt6locale18_S_initialize_onceEv", scope: !169, file: !170, line: 346, type: !208, isLocal: false, isDefinition: false, scopeLine: 346, flags: DIFlagPrototyped | DIFlagStaticMember, isOptimized: false)
!986 = !DISubprogram(name: "_S_normalize_category", linkageName: "_ZNSt6locale21_S_normalize_categoryEi", scope: !169, file: !170, line: 349, type: !987, isLocal: false, isDefinition: false, scopeLine: 349, flags: DIFlagPrototyped | DIFlagStaticMember, isOptimized: false)
!987 = !DISubroutineType(types: !988)
!988 = !{!174, !174}
!989 = !DISubprogram(name: "_M_coalesce", linkageName: "_ZNSt6locale11_M_coalesceERKS_S1_i", scope: !169, file: !170, line: 352, type: !961, isLocal: false, isDefinition: false, scopeLine: 352, flags: DIFlagPrototyped, isOptimized: false)
!990 = !DISubprogram(name: "register_callback", linkageName: "_ZNSt8ios_base17register_callbackEPFvNS_5eventERS_iEi", scope: !70, file: !19, line: 519, type: !991, isLocal: false, isDefinition: false, scopeLine: 519, flags: DIFlagPublic | DIFlagPrototyped, isOptimized: false)
!991 = !DISubroutineType(types: !992)
!992 = !{null, !993, !132, !12}
!993 = !DIDerivedType(tag: DW_TAG_pointer_type, baseType: !70, size: 64, flags: DIFlagArtificial | DIFlagObjectPointer)
!994 = !DISubprogram(name: "_M_call_callbacks", linkageName: "_ZNSt8ios_base17_M_call_callbacksENS_5eventE", scope: !70, file: !19, line: 563, type: !995, isLocal: false, isDefinition: false, scopeLine: 563, flags: DIFlagProtected | DIFlagPrototyped, isOptimized: false)
!995 = !DISubroutineType(types: !996)
!996 = !{null, !993, !69}
!997 = !DISubprogram(name: "_M_dispose_callbacks", linkageName: "_ZNSt8ios_base20_M_dispose_callbacksEv", scope: !70, file: !19, line: 566, type: !998, isLocal: false, isDefinition: false, scopeLine: 566, flags: DIFlagProtected | DIFlagPrototyped, isOptimized: false)
!998 = !DISubroutineType(types: !999)
!999 = !{null, !993}
!1000 = !DISubprogram(name: "_M_grow_words", linkageName: "_ZNSt8ios_base13_M_grow_wordsEib", scope: !70, file: !19, line: 589, type: !1001, isLocal: false, isDefinition: false, scopeLine: 589, flags: DIFlagProtected | DIFlagPrototyped, isOptimized: false)
!1001 = !DISubroutineType(types: !1002)
!1002 = !{!1003, !993, !12, !318}
!1003 = !DIDerivedType(tag: DW_TAG_reference_type, baseType: !152, size: 64)
!1004 = !DISubprogram(name: "_M_init", linkageName: "_ZNSt8ios_base7_M_initEv", scope: !70, file: !19, line: 595, type: !998, isLocal: false, isDefinition: false, scopeLine: 595, flags: DIFlagProtected | DIFlagPrototyped, isOptimized: false)
!1005 = !DISubprogram(name: "flags", linkageName: "_ZNKSt8ios_base5flagsEv", scope: !70, file: !19, line: 621, type: !1006, isLocal: false, isDefinition: false, scopeLine: 621, flags: DIFlagPublic | DIFlagPrototyped, isOptimized: false)
!1006 = !DISubroutineType(types: !1007)
!1007 = !{!79, !1008}
!1008 = !DIDerivedType(tag: DW_TAG_pointer_type, baseType: !1009, size: 64, flags: DIFlagArtificial | DIFlagObjectPointer)
!1009 = !DIDerivedType(tag: DW_TAG_const_type, baseType: !70)
!1010 = !DISubprogram(name: "flags", linkageName: "_ZNSt8ios_base5flagsESt13_Ios_Fmtflags", scope: !70, file: !19, line: 632, type: !1011, isLocal: false, isDefinition: false, scopeLine: 632, flags: DIFlagPublic | DIFlagPrototyped, isOptimized: false)
!1011 = !DISubroutineType(types: !1012)
!1012 = !{!79, !993, !79}
!1013 = !DISubprogram(name: "setf", linkageName: "_ZNSt8ios_base4setfESt13_Ios_Fmtflags", scope: !70, file: !19, line: 648, type: !1011, isLocal: false, isDefinition: false, scopeLine: 648, flags: DIFlagPublic | DIFlagPrototyped, isOptimized: false)
!1014 = !DISubprogram(name: "setf", linkageName: "_ZNSt8ios_base4setfESt13_Ios_FmtflagsS0_", scope: !70, file: !19, line: 665, type: !1015, isLocal: false, isDefinition: false, scopeLine: 665, flags: DIFlagPublic | DIFlagPrototyped, isOptimized: false)
!1015 = !DISubroutineType(types: !1016)
!1016 = !{!79, !993, !79, !79}
!1017 = !DISubprogram(name: "unsetf", linkageName: "_ZNSt8ios_base6unsetfESt13_Ios_Fmtflags", scope: !70, file: !19, line: 680, type: !1018, isLocal: false, isDefinition: false, scopeLine: 680, flags: DIFlagPublic | DIFlagPrototyped, isOptimized: false)
!1018 = !DISubroutineType(types: !1019)
!1019 = !{null, !993, !79}
!1020 = !DISubprogram(name: "precision", linkageName: "_ZNKSt8ios_base9precisionEv", scope: !70, file: !19, line: 691, type: !1021, isLocal: false, isDefinition: false, scopeLine: 691, flags: DIFlagPublic | DIFlagPrototyped, isOptimized: false)
!1021 = !DISubroutineType(types: !1022)
!1022 = !{!117, !1008}
!1023 = !DISubprogram(name: "precision", linkageName: "_ZNSt8ios_base9precisionEl", scope: !70, file: !19, line: 700, type: !1024, isLocal: false, isDefinition: false, scopeLine: 700, flags: DIFlagPublic | DIFlagPrototyped, isOptimized: false)
!1024 = !DISubroutineType(types: !1025)
!1025 = !{!117, !993, !117}
!1026 = !DISubprogram(name: "width", linkageName: "_ZNKSt8ios_base5widthEv", scope: !70, file: !19, line: 714, type: !1021, isLocal: false, isDefinition: false, scopeLine: 714, flags: DIFlagPublic | DIFlagPrototyped, isOptimized: false)
!1027 = !DISubprogram(name: "width", linkageName: "_ZNSt8ios_base5widthEl", scope: !70, file: !19, line: 723, type: !1024, isLocal: false, isDefinition: false, scopeLine: 723, flags: DIFlagPublic | DIFlagPrototyped, isOptimized: false)
!1028 = !DISubprogram(name: "sync_with_stdio", linkageName: "_ZNSt8ios_base15sync_with_stdioEb", scope: !70, file: !19, line: 742, type: !1029, isLocal: false, isDefinition: false, scopeLine: 742, flags: DIFlagPublic | DIFlagPrototyped | DIFlagStaticMember, isOptimized: false)
!1029 = !DISubroutineType(types: !1030)
!1030 = !{!318, !318}
!1031 = !DISubprogram(name: "imbue", linkageName: "_ZNSt8ios_base5imbueERKSt6locale", scope: !70, file: !19, line: 754, type: !1032, isLocal: false, isDefinition: false, scopeLine: 754, flags: DIFlagPublic | DIFlagPrototyped, isOptimized: false)
!1032 = !DISubroutineType(types: !1033)
!1033 = !{!169, !993, !358}
!1034 = !DISubprogram(name: "getloc", linkageName: "_ZNKSt8ios_base6getlocEv", scope: !70, file: !19, line: 765, type: !1035, isLocal: false, isDefinition: false, scopeLine: 765, flags: DIFlagPublic | DIFlagPrototyped, isOptimized: false)
!1035 = !DISubroutineType(types: !1036)
!1036 = !{!169, !1008}
!1037 = !DISubprogram(name: "_M_getloc", linkageName: "_ZNKSt8ios_base9_M_getlocEv", scope: !70, file: !19, line: 776, type: !1038, isLocal: false, isDefinition: false, scopeLine: 776, flags: DIFlagPublic | DIFlagPrototyped, isOptimized: false)
!1038 = !DISubroutineType(types: !1039)
!1039 = !{!358, !1008}
!1040 = !DISubprogram(name: "xalloc", linkageName: "_ZNSt8ios_base6xallocEv", scope: !70, file: !19, line: 795, type: !75, isLocal: false, isDefinition: false, scopeLine: 795, flags: DIFlagPublic | DIFlagPrototyped | DIFlagStaticMember, isOptimized: false)
!1041 = !DISubprogram(name: "iword", linkageName: "_ZNSt8ios_base5iwordEi", scope: !70, file: !19, line: 811, type: !1042, isLocal: false, isDefinition: false, scopeLine: 811, flags: DIFlagPublic | DIFlagPrototyped, isOptimized: false)
!1042 = !DISubroutineType(types: !1043)
!1043 = !{!1044, !993, !12}
!1044 = !DIDerivedType(tag: DW_TAG_reference_type, baseType: !121, size: 64)
!1045 = !DISubprogram(name: "pword", linkageName: "_ZNSt8ios_base5pwordEi", scope: !70, file: !19, line: 832, type: !1046, isLocal: false, isDefinition: false, scopeLine: 832, flags: DIFlagPublic | DIFlagPrototyped, isOptimized: false)
!1046 = !DISubroutineType(types: !1047)
!1047 = !{!1048, !993, !12}
!1048 = !DIDerivedType(tag: DW_TAG_reference_type, baseType: !155, size: 64)
!1049 = !DISubprogram(name: "~ios_base", scope: !70, file: !19, line: 848, type: !998, isLocal: false, isDefinition: false, scopeLine: 848, containingType: !70, virtuality: DW_VIRTUALITY_virtual, virtualIndex: 0, flags: DIFlagPublic | DIFlagPrototyped, isOptimized: false)
!1050 = !DISubprogram(name: "ios_base", scope: !70, file: !19, line: 851, type: !998, isLocal: false, isDefinition: false, scopeLine: 851, flags: DIFlagProtected | DIFlagPrototyped, isOptimized: false)
!1051 = !DISubprogram(name: "ios_base", scope: !70, file: !19, line: 863, type: !1052, isLocal: false, isDefinition: false, scopeLine: 863, flags: DIFlagPublic | DIFlagPrototyped, isOptimized: false)
!1052 = !DISubroutineType(types: !1053)
!1053 = !{null, !993, !1054}
!1054 = !DIDerivedType(tag: DW_TAG_reference_type, baseType: !1009, size: 64)
!1055 = !DISubprogram(name: "operator=", linkageName: "_ZNSt8ios_baseaSERKS_", scope: !70, file: !19, line: 866, type: !1056, isLocal: false, isDefinition: false, scopeLine: 866, flags: DIFlagPublic | DIFlagPrototyped, isOptimized: false)
!1056 = !DISubroutineType(types: !1057)
!1057 = !{!136, !993, !1054}
!1058 = !DISubprogram(name: "_M_move", linkageName: "_ZNSt8ios_base7_M_moveERS_", scope: !70, file: !19, line: 870, type: !1059, isLocal: false, isDefinition: false, scopeLine: 870, flags: DIFlagProtected | DIFlagPrototyped, isOptimized: false)
!1059 = !DISubroutineType(types: !1060)
!1060 = !{null, !993, !136}
!1061 = !DISubprogram(name: "_M_swap", linkageName: "_ZNSt8ios_base7_M_swapERS_", scope: !70, file: !19, line: 873, type: !1059, isLocal: false, isDefinition: false, scopeLine: 873, flags: DIFlagProtected | DIFlagPrototyped, isOptimized: false)
!1062 = !{!1063, !1064, !1065}
!1063 = !DIEnumerator(name: "erase_event", value: 0)
!1064 = !DIEnumerator(name: "imbue_event", value: 1)
!1065 = !DIEnumerator(name: "copyfmt_event", value: 2)
!1066 = !{!1067}
!1067 = !DIGlobalVariableExpression(var: !1068, expr: !DIExpression())
!1068 = distinct !DIGlobalVariable(name: "__ioinit", linkageName: "_ZStL8__ioinit", scope: !20, file: !1069, line: 74, type: !1070, isLocal: true, isDefinition: true)
!1069 = !DIFile(filename: "C:/Xilinx/2025.1/Vitis/tps/mingw/8.3.0/win64.o/nt\5Clib\5Cgcc\5Cx86_64-w64-mingw32\5C8.3.0\5Cinclude\5Cc++\5Ciostream", directory: "C:\5CUsers\5Cjackh\5CDownloads\5CMatrix_Lab4\5Creshape")
!1070 = distinct !DICompositeType(tag: DW_TAG_class_type, name: "Init", scope: !70, file: !19, line: 603, size: 8, flags: DIFlagTypePassByReference, elements: !1071, identifier: "_ZTSNSt8ios_base4InitE")
!1071 = !{!1072, !1073, !1074, !1078}
!1072 = !DIDerivedType(tag: DW_TAG_member, name: "_S_refcount", scope: !1070, file: !19, line: 611, baseType: !139, flags: DIFlagStaticMember)
!1073 = !DIDerivedType(tag: DW_TAG_member, name: "_S_synced_with_stdio", scope: !1070, file: !19, line: 612, baseType: !318, flags: DIFlagStaticMember)
!1074 = !DISubprogram(name: "Init", scope: !1070, file: !19, line: 607, type: !1075, isLocal: false, isDefinition: false, scopeLine: 607, flags: DIFlagPublic | DIFlagPrototyped, isOptimized: false)
!1075 = !DISubroutineType(types: !1076)
!1076 = !{null, !1077}
!1077 = !DIDerivedType(tag: DW_TAG_pointer_type, baseType: !1070, size: 64, flags: DIFlagArtificial | DIFlagObjectPointer)
!1078 = !DISubprogram(name: "~Init", scope: !1070, file: !19, line: 608, type: !1075, isLocal: false, isDefinition: false, scopeLine: 608, flags: DIFlagPublic | DIFlagPrototyped, isOptimized: false)
!1079 = !{!1080, !1084, !1088, !1092, !1099, !1107, !1111, !1118, !1122, !1126, !1128, !1130, !1134, !1142, !1146, !1152, !1158, !1160, !1164, !1169, !1173, !1177, !1182, !1184, !1188, !1192, !1196, !1198, !1203, !1207, !1211, !1213, !1215, !1219, !1227, !1231, !1235, !1239, !1241, !1247, !1249, !1256, !1261, !1263, !1267, !1271, !1275, !1279, !1281, !1283, !1287, !1291, !1295, !1297, !1301, !1305, !1307, !1309, !1313, !1318, !1323, !1328, !1329, !1330, !1331, !1332, !1333, !1334, !1335, !1336, !1337, !1338, !1438, !1442, !1446, !1451, !1454, !1456, !1458, !1460, !1462, !1464, !1466, !1468, !1470, !1472, !1474, !1476, !1478, !1481, !1483, !1485, !1487, !1489, !1491, !1493, !1495, !1497, !1499, !1501, !1503, !1505, !1507, !1511, !1515, !1520, !1526, !1528, !1530, !1532, !1534, !1536, !1538, !1540, !1542, !1544, !1546, !1548, !1550, !1552, !1553, !1554, !1558, !1562, !1568, !1570, !1575, !1579, !1583, !1587, !1596, !1600, !1604, !1608, !1612, !1616, !1620, !1624, !1628, !1632, !1636, !1640, !1644, !1646, !1650, !1654, !1659, !1663, !1667, !1669, !1673, !1677, !1683, !1685, !1689, !1693, !1697, !1701, !1705, !1709, !1713, !1714, !1715, !1716, !1718, !1719, !1720, !1721, !1722, !1723, !1724, !1726, !1729, !1733, !1737, !1739, !1741, !1743, !1745, !1751, !1755, !1759, !1763, !1767, !1771, !1776, !1780, !1782, !1786, !1792, !1796, !1801, !1803, !1805, !1809, !1813, !1815, !1817, !1819, !1821, !1825, !1827, !1829, !1833, !1837, !1841, !1845, !1849, !1853, !1855, !1859, !1863, !1867, !1871, !1873, !1875, !1879, !1883, !1884, !1885, !1886, !1887, !1888, !1892, !1894, !1895, !1897, !1899, !1901, !1903, !1907, !1909, !1911, !1913, !1915, !1917, !1919, !1921, !1923, !1927, !1931, !1933, !1937, !1941, !1943, !1944, !1945, !1946, !1947, !1952, !1953, !1954, !1955, !1956, !1957, !1958, !1959, !1960, !1961, !1962, !1963, !1964, !1965, !1966, !1967, !1968, !1969, !1970, !1971, !1972, !1973, !1974, !1975, !1976}
!1080 = !DIImportedEntity(tag: DW_TAG_imported_declaration, scope: !20, entity: !1081, file: !1083, line: 64)
!1081 = !DIDerivedType(tag: DW_TAG_typedef, name: "mbstate_t", file: !1082, line: 1416, baseType: !12)
!1082 = !DIFile(filename: "C:/Xilinx/2025.1/Vitis/tps/mingw/8.3.0/win64.o/nt\5Cx86_64-w64-mingw32\5Cinclude\5Cwchar.h", directory: "C:\5CUsers\5Cjackh\5CDownloads\5CMatrix_Lab4\5Creshape")
!1083 = !DIFile(filename: "C:/Xilinx/2025.1/Vitis/tps/mingw/8.3.0/win64.o/nt\5Clib\5Cgcc\5Cx86_64-w64-mingw32\5C8.3.0\5Cinclude\5Cc++\5Ccwchar", directory: "C:\5CUsers\5Cjackh\5CDownloads\5CMatrix_Lab4\5Creshape")
!1084 = !DIImportedEntity(tag: DW_TAG_imported_declaration, scope: !20, entity: !1085, file: !1083, line: 139)
!1085 = !DIDerivedType(tag: DW_TAG_typedef, name: "wint_t", file: !1086, line: 106, baseType: !1087)
!1086 = !DIFile(filename: "C:/Xilinx/2025.1/Vitis/tps/mingw/8.3.0/win64.o/nt\5Cx86_64-w64-mingw32\5Cinclude\5Ccrtdefs.h", directory: "C:\5CUsers\5Cjackh\5CDownloads\5CMatrix_Lab4\5Creshape")
!1087 = !DIBasicType(name: "unsigned short", size: 16, encoding: DW_ATE_unsigned)
!1088 = !DIImportedEntity(tag: DW_TAG_imported_declaration, scope: !20, entity: !1089, file: !1083, line: 141)
!1089 = !DISubprogram(name: "btowc", scope: !1082, file: !1082, line: 1419, type: !1090, isLocal: false, isDefinition: false, flags: DIFlagPrototyped, isOptimized: false)
!1090 = !DISubroutineType(types: !1091)
!1091 = !{!1085, !12}
!1092 = !DIImportedEntity(tag: DW_TAG_imported_declaration, scope: !20, entity: !1093, file: !1083, line: 142)
!1093 = !DISubprogram(name: "fgetwc", scope: !1082, file: !1082, line: 771, type: !1094, isLocal: false, isDefinition: false, flags: DIFlagPrototyped, isOptimized: false)
!1094 = !DISubroutineType(types: !1095)
!1095 = !{!1085, !1096}
!1096 = !DIDerivedType(tag: DW_TAG_pointer_type, baseType: !1097, size: 64)
!1097 = !DIDerivedType(tag: DW_TAG_typedef, name: "FILE", file: !1082, line: 51, baseType: !1098)
!1098 = distinct !DICompositeType(tag: DW_TAG_structure_type, name: "_iobuf", file: !1082, line: 41, size: 384, align: 64, flags: DIFlagFwdDecl, identifier: "_ZTS6_iobuf")
!1099 = !DIImportedEntity(tag: DW_TAG_imported_declaration, scope: !20, entity: !1100, file: !1083, line: 143)
!1100 = !DISubprogram(name: "fgetws", scope: !1082, file: !1082, line: 780, type: !1101, isLocal: false, isDefinition: false, flags: DIFlagPrototyped, isOptimized: false)
!1101 = !DISubroutineType(types: !1102)
!1102 = !{!1103, !1105, !12, !1106}
!1103 = !DIDerivedType(tag: DW_TAG_pointer_type, baseType: !1104, size: 64)
!1104 = !DIBasicType(name: "wchar_t", size: 32, encoding: DW_ATE_signed)
!1105 = !DIDerivedType(tag: DW_TAG_restrict_type, baseType: !1103)
!1106 = !DIDerivedType(tag: DW_TAG_restrict_type, baseType: !1096)
!1107 = !DIImportedEntity(tag: DW_TAG_imported_declaration, scope: !20, entity: !1108, file: !1083, line: 144)
!1108 = !DISubprogram(name: "fputwc", scope: !1082, file: !1082, line: 773, type: !1109, isLocal: false, isDefinition: false, flags: DIFlagPrototyped, isOptimized: false)
!1109 = !DISubroutineType(types: !1110)
!1110 = !{!1085, !1104, !1096}
!1111 = !DIImportedEntity(tag: DW_TAG_imported_declaration, scope: !20, entity: !1112, file: !1083, line: 145)
!1112 = !DISubprogram(name: "fputws", scope: !1082, file: !1082, line: 781, type: !1113, isLocal: false, isDefinition: false, flags: DIFlagPrototyped, isOptimized: false)
!1113 = !DISubroutineType(types: !1114)
!1114 = !{!12, !1115, !1106}
!1115 = !DIDerivedType(tag: DW_TAG_restrict_type, baseType: !1116)
!1116 = !DIDerivedType(tag: DW_TAG_pointer_type, baseType: !1117, size: 64)
!1117 = !DIDerivedType(tag: DW_TAG_const_type, baseType: !1104)
!1118 = !DIImportedEntity(tag: DW_TAG_imported_declaration, scope: !20, entity: !1119, file: !1083, line: 146)
!1119 = !DISubprogram(name: "fwide", scope: !1082, file: !1082, line: 1434, type: !1120, isLocal: false, isDefinition: false, flags: DIFlagPrototyped, isOptimized: false)
!1120 = !DISubroutineType(types: !1121)
!1121 = !{!12, !1096, !12}
!1122 = !DIImportedEntity(tag: DW_TAG_imported_declaration, scope: !20, entity: !1123, file: !1083, line: 147)
!1123 = !DISubprogram(name: "fwprintf", linkageName: "_ZL8fwprintfP6_iobufPKwz", scope: !1082, file: !1082, line: 585, type: !1124, isLocal: true, isDefinition: false, flags: DIFlagPrototyped, isOptimized: false)
!1124 = !DISubroutineType(types: !1125)
!1125 = !{!12, !1096, !1116, null}
!1126 = !DIImportedEntity(tag: DW_TAG_imported_declaration, scope: !20, entity: !1127, file: !1083, line: 148)
!1127 = !DISubprogram(name: "fwscanf", linkageName: "_ZL7fwscanfP6_iobufPKwz", scope: !1082, file: !1082, line: 549, type: !1124, isLocal: true, isDefinition: false, flags: DIFlagPrototyped, isOptimized: false)
!1128 = !DIImportedEntity(tag: DW_TAG_imported_declaration, scope: !20, entity: !1129, file: !1083, line: 149)
!1129 = !DISubprogram(name: "getwc", scope: !1082, file: !1082, line: 775, type: !1094, isLocal: false, isDefinition: false, flags: DIFlagPrototyped, isOptimized: false)
!1130 = !DIImportedEntity(tag: DW_TAG_imported_declaration, scope: !20, entity: !1131, file: !1083, line: 150)
!1131 = !DISubprogram(name: "getwchar", scope: !1082, file: !1082, line: 776, type: !1132, isLocal: false, isDefinition: false, flags: DIFlagPrototyped, isOptimized: false)
!1132 = !DISubroutineType(types: !1133)
!1133 = !{!1085}
!1134 = !DIImportedEntity(tag: DW_TAG_imported_declaration, scope: !20, entity: !1135, file: !1083, line: 151)
!1135 = !DISubprogram(name: "mbrlen", scope: !1082, file: !1082, line: 1420, type: !1136, isLocal: false, isDefinition: false, flags: DIFlagPrototyped, isOptimized: false)
!1136 = !DISubroutineType(types: !1137)
!1137 = !{!1138, !1139, !1138, !1140}
!1138 = !DIDerivedType(tag: DW_TAG_typedef, name: "size_t", file: !1086, line: 35, baseType: !215)
!1139 = !DIDerivedType(tag: DW_TAG_restrict_type, baseType: !223)
!1140 = !DIDerivedType(tag: DW_TAG_restrict_type, baseType: !1141)
!1141 = !DIDerivedType(tag: DW_TAG_pointer_type, baseType: !1081, size: 64)
!1142 = !DIImportedEntity(tag: DW_TAG_imported_declaration, scope: !20, entity: !1143, file: !1083, line: 152)
!1143 = !DISubprogram(name: "mbrtowc", scope: !1082, file: !1082, line: 1421, type: !1144, isLocal: false, isDefinition: false, flags: DIFlagPrototyped, isOptimized: false)
!1144 = !DISubroutineType(types: !1145)
!1145 = !{!1138, !1105, !1139, !1138, !1140}
!1146 = !DIImportedEntity(tag: DW_TAG_imported_declaration, scope: !20, entity: !1147, file: !1083, line: 153)
!1147 = !DISubprogram(name: "mbsinit", scope: !1082, file: !1082, line: 1435, type: !1148, isLocal: false, isDefinition: false, flags: DIFlagPrototyped, isOptimized: false)
!1148 = !DISubroutineType(types: !1149)
!1149 = !{!12, !1150}
!1150 = !DIDerivedType(tag: DW_TAG_pointer_type, baseType: !1151, size: 64)
!1151 = !DIDerivedType(tag: DW_TAG_const_type, baseType: !1081)
!1152 = !DIImportedEntity(tag: DW_TAG_imported_declaration, scope: !20, entity: !1153, file: !1083, line: 154)
!1153 = !DISubprogram(name: "mbsrtowcs", scope: !1082, file: !1082, line: 1422, type: !1154, isLocal: false, isDefinition: false, flags: DIFlagPrototyped, isOptimized: false)
!1154 = !DISubroutineType(types: !1155)
!1155 = !{!1138, !1105, !1156, !1138, !1140}
!1156 = !DIDerivedType(tag: DW_TAG_restrict_type, baseType: !1157)
!1157 = !DIDerivedType(tag: DW_TAG_pointer_type, baseType: !223, size: 64)
!1158 = !DIImportedEntity(tag: DW_TAG_imported_declaration, scope: !20, entity: !1159, file: !1083, line: 155)
!1159 = !DISubprogram(name: "putwc", scope: !1082, file: !1082, line: 777, type: !1109, isLocal: false, isDefinition: false, flags: DIFlagPrototyped, isOptimized: false)
!1160 = !DIImportedEntity(tag: DW_TAG_imported_declaration, scope: !20, entity: !1161, file: !1083, line: 156)
!1161 = !DISubprogram(name: "putwchar", scope: !1082, file: !1082, line: 778, type: !1162, isLocal: false, isDefinition: false, flags: DIFlagPrototyped, isOptimized: false)
!1162 = !DISubroutineType(types: !1163)
!1163 = !{!1085, !1104}
!1164 = !DIImportedEntity(tag: DW_TAG_imported_declaration, scope: !20, entity: !1165, file: !1083, line: 158)
!1165 = !DISubprogram(name: "swprintf", linkageName: "_ZL8swprintfPwPKwz", scope: !1166, file: !1166, line: 62, type: !1167, isLocal: true, isDefinition: false, flags: DIFlagPrototyped, isOptimized: false)
!1166 = !DIFile(filename: "C:/Xilinx/2025.1/Vitis/tps/mingw/8.3.0/win64.o/nt\5Cx86_64-w64-mingw32\5Cinclude\5Cswprintf.inl", directory: "C:\5CUsers\5Cjackh\5CDownloads\5CMatrix_Lab4\5Creshape")
!1167 = !DISubroutineType(types: !1168)
!1168 = !{!12, !1103, !1116, null}
!1169 = !DIImportedEntity(tag: DW_TAG_imported_declaration, scope: !20, entity: !1170, file: !1083, line: 160)
!1170 = !DISubprogram(name: "swscanf", linkageName: "_ZL7swscanfPKwS0_z", scope: !1082, file: !1082, line: 527, type: !1171, isLocal: true, isDefinition: false, flags: DIFlagPrototyped, isOptimized: false)
!1171 = !DISubroutineType(types: !1172)
!1172 = !{!12, !1116, !1116, null}
!1173 = !DIImportedEntity(tag: DW_TAG_imported_declaration, scope: !20, entity: !1174, file: !1083, line: 161)
!1174 = !DISubprogram(name: "ungetwc", scope: !1082, file: !1082, line: 779, type: !1175, isLocal: false, isDefinition: false, flags: DIFlagPrototyped, isOptimized: false)
!1175 = !DISubroutineType(types: !1176)
!1176 = !{!1085, !1085, !1096}
!1177 = !DIImportedEntity(tag: DW_TAG_imported_declaration, scope: !20, entity: !1178, file: !1083, line: 162)
!1178 = !DISubprogram(name: "vfwprintf", linkageName: "_ZL9vfwprintfP6_iobufPKwPv", scope: !1082, file: !1082, line: 607, type: !1179, isLocal: true, isDefinition: false, flags: DIFlagPrototyped, isOptimized: false)
!1179 = !DISubroutineType(types: !1180)
!1180 = !{!12, !1096, !1116, !1181}
!1181 = !DIDerivedType(tag: DW_TAG_typedef, name: "__builtin_va_list", file: !16, baseType: !155)
!1182 = !DIImportedEntity(tag: DW_TAG_imported_declaration, scope: !20, entity: !1183, file: !1083, line: 164)
!1183 = !DISubprogram(name: "vfwscanf", linkageName: "_ZL8vfwscanfP6_iobufPKwPv", scope: !1082, file: !1082, line: 575, type: !1179, isLocal: true, isDefinition: false, flags: DIFlagPrototyped, isOptimized: false)
!1184 = !DIImportedEntity(tag: DW_TAG_imported_declaration, scope: !20, entity: !1185, file: !1083, line: 167)
!1185 = !DISubprogram(name: "vswprintf", linkageName: "_ZL9vswprintfPwPKwPv", scope: !1166, file: !1166, line: 51, type: !1186, isLocal: true, isDefinition: false, flags: DIFlagPrototyped, isOptimized: false)
!1186 = !DISubroutineType(types: !1187)
!1187 = !{!12, !1103, !1116, !1181}
!1188 = !DIImportedEntity(tag: DW_TAG_imported_declaration, scope: !20, entity: !1189, file: !1083, line: 170)
!1189 = !DISubprogram(name: "vswscanf", linkageName: "_ZL8vswscanfPKwS0_Pv", scope: !1082, file: !1082, line: 561, type: !1190, isLocal: true, isDefinition: false, flags: DIFlagPrototyped, isOptimized: false)
!1190 = !DISubroutineType(types: !1191)
!1191 = !{!12, !1116, !1116, !1181}
!1192 = !DIImportedEntity(tag: DW_TAG_imported_declaration, scope: !20, entity: !1193, file: !1083, line: 172)
!1193 = !DISubprogram(name: "vwprintf", linkageName: "_ZL8vwprintfPKwPv", scope: !1082, file: !1082, line: 614, type: !1194, isLocal: true, isDefinition: false, flags: DIFlagPrototyped, isOptimized: false)
!1194 = !DISubroutineType(types: !1195)
!1195 = !{!12, !1116, !1181}
!1196 = !DIImportedEntity(tag: DW_TAG_imported_declaration, scope: !20, entity: !1197, file: !1083, line: 174)
!1197 = !DISubprogram(name: "vwscanf", linkageName: "_ZL7vwscanfPKwPv", scope: !1082, file: !1082, line: 568, type: !1194, isLocal: true, isDefinition: false, flags: DIFlagPrototyped, isOptimized: false)
!1198 = !DIImportedEntity(tag: DW_TAG_imported_declaration, scope: !20, entity: !1199, file: !1083, line: 176)
!1199 = !DISubprogram(name: "wcrtomb", scope: !1082, file: !1082, line: 1423, type: !1200, isLocal: false, isDefinition: false, flags: DIFlagPrototyped, isOptimized: false)
!1200 = !DISubroutineType(types: !1201)
!1201 = !{!1138, !1202, !1104, !1140}
!1202 = !DIDerivedType(tag: DW_TAG_restrict_type, baseType: !279)
!1203 = !DIImportedEntity(tag: DW_TAG_imported_declaration, scope: !20, entity: !1204, file: !1083, line: 177)
!1204 = !DISubprogram(name: "wcscat", scope: !1082, file: !1082, line: 1305, type: !1205, isLocal: false, isDefinition: false, flags: DIFlagPrototyped, isOptimized: false)
!1205 = !DISubroutineType(types: !1206)
!1206 = !{!1103, !1105, !1115}
!1207 = !DIImportedEntity(tag: DW_TAG_imported_declaration, scope: !20, entity: !1208, file: !1083, line: 178)
!1208 = !DISubprogram(name: "wcscmp", scope: !1082, file: !1082, line: 1307, type: !1209, isLocal: false, isDefinition: false, flags: DIFlagPrototyped, isOptimized: false)
!1209 = !DISubroutineType(types: !1210)
!1210 = !{!12, !1116, !1116}
!1211 = !DIImportedEntity(tag: DW_TAG_imported_declaration, scope: !20, entity: !1212, file: !1083, line: 179)
!1212 = !DISubprogram(name: "wcscoll", scope: !1082, file: !1082, line: 1336, type: !1209, isLocal: false, isDefinition: false, flags: DIFlagPrototyped, isOptimized: false)
!1213 = !DIImportedEntity(tag: DW_TAG_imported_declaration, scope: !20, entity: !1214, file: !1083, line: 180)
!1214 = !DISubprogram(name: "wcscpy", scope: !1082, file: !1082, line: 1308, type: !1205, isLocal: false, isDefinition: false, flags: DIFlagPrototyped, isOptimized: false)
!1215 = !DIImportedEntity(tag: DW_TAG_imported_declaration, scope: !20, entity: !1216, file: !1083, line: 181)
!1216 = !DISubprogram(name: "wcscspn", scope: !1082, file: !1082, line: 1309, type: !1217, isLocal: false, isDefinition: false, flags: DIFlagPrototyped, isOptimized: false)
!1217 = !DISubroutineType(types: !1218)
!1218 = !{!1138, !1116, !1116}
!1219 = !DIImportedEntity(tag: DW_TAG_imported_declaration, scope: !20, entity: !1220, file: !1083, line: 182)
!1220 = !DISubprogram(name: "wcsftime", scope: !1082, file: !1082, line: 1381, type: !1221, isLocal: false, isDefinition: false, flags: DIFlagPrototyped, isOptimized: false)
!1221 = !DISubroutineType(types: !1222)
!1222 = !{!1138, !1105, !1138, !1115, !1223}
!1223 = !DIDerivedType(tag: DW_TAG_restrict_type, baseType: !1224)
!1224 = !DIDerivedType(tag: DW_TAG_pointer_type, baseType: !1225, size: 64)
!1225 = !DIDerivedType(tag: DW_TAG_const_type, baseType: !1226)
!1226 = distinct !DICompositeType(tag: DW_TAG_structure_type, name: "tm", file: !1082, line: 1361, size: 288, align: 32, flags: DIFlagFwdDecl, identifier: "_ZTS2tm")
!1227 = !DIImportedEntity(tag: DW_TAG_imported_declaration, scope: !20, entity: !1228, file: !1083, line: 183)
!1228 = !DISubprogram(name: "wcslen", scope: !1082, file: !1082, line: 1310, type: !1229, isLocal: false, isDefinition: false, flags: DIFlagPrototyped, isOptimized: false)
!1229 = !DISubroutineType(types: !1230)
!1230 = !{!1138, !1116}
!1231 = !DIImportedEntity(tag: DW_TAG_imported_declaration, scope: !20, entity: !1232, file: !1083, line: 184)
!1232 = !DISubprogram(name: "wcsncat", scope: !1082, file: !1082, line: 1312, type: !1233, isLocal: false, isDefinition: false, flags: DIFlagPrototyped, isOptimized: false)
!1233 = !DISubroutineType(types: !1234)
!1234 = !{!1103, !1105, !1115, !1138}
!1235 = !DIImportedEntity(tag: DW_TAG_imported_declaration, scope: !20, entity: !1236, file: !1083, line: 185)
!1236 = !DISubprogram(name: "wcsncmp", scope: !1082, file: !1082, line: 1313, type: !1237, isLocal: false, isDefinition: false, flags: DIFlagPrototyped, isOptimized: false)
!1237 = !DISubroutineType(types: !1238)
!1238 = !{!12, !1116, !1116, !1138}
!1239 = !DIImportedEntity(tag: DW_TAG_imported_declaration, scope: !20, entity: !1240, file: !1083, line: 186)
!1240 = !DISubprogram(name: "wcsncpy", scope: !1082, file: !1082, line: 1314, type: !1233, isLocal: false, isDefinition: false, flags: DIFlagPrototyped, isOptimized: false)
!1241 = !DIImportedEntity(tag: DW_TAG_imported_declaration, scope: !20, entity: !1242, file: !1083, line: 187)
!1242 = !DISubprogram(name: "wcsrtombs", scope: !1082, file: !1082, line: 1424, type: !1243, isLocal: false, isDefinition: false, flags: DIFlagPrototyped, isOptimized: false)
!1243 = !DISubroutineType(types: !1244)
!1244 = !{!1138, !1202, !1245, !1138, !1140}
!1245 = !DIDerivedType(tag: DW_TAG_restrict_type, baseType: !1246)
!1246 = !DIDerivedType(tag: DW_TAG_pointer_type, baseType: !1116, size: 64)
!1247 = !DIImportedEntity(tag: DW_TAG_imported_declaration, scope: !20, entity: !1248, file: !1083, line: 188)
!1248 = !DISubprogram(name: "wcsspn", scope: !1082, file: !1082, line: 1318, type: !1217, isLocal: false, isDefinition: false, flags: DIFlagPrototyped, isOptimized: false)
!1249 = !DIImportedEntity(tag: DW_TAG_imported_declaration, scope: !20, entity: !1250, file: !1083, line: 189)
!1250 = !DISubprogram(name: "wcstod", linkageName: "_ZL6wcstodPKwPPw", scope: !1082, file: !1082, line: 1246, type: !1251, isLocal: true, isDefinition: false, flags: DIFlagPrototyped, isOptimized: false)
!1251 = !DISubroutineType(types: !1252)
!1252 = !{!1253, !1115, !1254}
!1253 = !DIBasicType(name: "double", size: 64, encoding: DW_ATE_float)
!1254 = !DIDerivedType(tag: DW_TAG_restrict_type, baseType: !1255)
!1255 = !DIDerivedType(tag: DW_TAG_pointer_type, baseType: !1103, size: 64)
!1256 = !DIImportedEntity(tag: DW_TAG_imported_declaration, scope: !20, entity: !1257, file: !1083, line: 191)
!1257 = !DISubprogram(name: "wcstof", linkageName: "_ZL6wcstofPKwPPw", scope: !1082, file: !1082, line: 1250, type: !1258, isLocal: true, isDefinition: false, flags: DIFlagPrototyped, isOptimized: false)
!1258 = !DISubroutineType(types: !1259)
!1259 = !{!1260, !1115, !1254}
!1260 = !DIBasicType(name: "float", size: 32, encoding: DW_ATE_float)
!1261 = !DIImportedEntity(tag: DW_TAG_imported_declaration, scope: !20, entity: !1262, file: !1083, line: 193)
!1262 = !DISubprogram(name: "wcstok", scope: !1082, file: !1082, line: 1320, type: !1205, isLocal: false, isDefinition: false, flags: DIFlagPrototyped, isOptimized: false)
!1263 = !DIImportedEntity(tag: DW_TAG_imported_declaration, scope: !20, entity: !1264, file: !1083, line: 194)
!1264 = !DISubprogram(name: "wcstol", scope: !1082, file: !1082, line: 1261, type: !1265, isLocal: false, isDefinition: false, flags: DIFlagPrototyped, isOptimized: false)
!1265 = !DISubroutineType(types: !1266)
!1266 = !{!121, !1115, !1254, !12}
!1267 = !DIImportedEntity(tag: DW_TAG_imported_declaration, scope: !20, entity: !1268, file: !1083, line: 195)
!1268 = !DISubprogram(name: "wcstoul", scope: !1082, file: !1082, line: 1263, type: !1269, isLocal: false, isDefinition: false, flags: DIFlagPrototyped, isOptimized: false)
!1269 = !DISubroutineType(types: !1270)
!1270 = !{!215, !1115, !1254, !12}
!1271 = !DIImportedEntity(tag: DW_TAG_imported_declaration, scope: !20, entity: !1272, file: !1083, line: 196)
!1272 = !DISubprogram(name: "wcsxfrm", scope: !1082, file: !1082, line: 1334, type: !1273, isLocal: false, isDefinition: false, flags: DIFlagPrototyped, isOptimized: false)
!1273 = !DISubroutineType(types: !1274)
!1274 = !{!1138, !1105, !1115, !1138}
!1275 = !DIImportedEntity(tag: DW_TAG_imported_declaration, scope: !20, entity: !1276, file: !1083, line: 197)
!1276 = !DISubprogram(name: "wctob", scope: !1082, file: !1082, line: 1425, type: !1277, isLocal: false, isDefinition: false, flags: DIFlagPrototyped, isOptimized: false)
!1277 = !DISubroutineType(types: !1278)
!1278 = !{!12, !1085}
!1279 = !DIImportedEntity(tag: DW_TAG_imported_declaration, scope: !20, entity: !1280, file: !1083, line: 198)
!1280 = !DISubprogram(name: "wmemcmp", scope: !1082, file: !1082, line: 1430, type: !1237, isLocal: false, isDefinition: false, flags: DIFlagPrototyped, isOptimized: false)
!1281 = !DIImportedEntity(tag: DW_TAG_imported_declaration, scope: !20, entity: !1282, file: !1083, line: 199)
!1282 = !DISubprogram(name: "wmemcpy", scope: !1082, file: !1082, line: 1431, type: !1233, isLocal: false, isDefinition: false, flags: DIFlagPrototyped, isOptimized: false)
!1283 = !DIImportedEntity(tag: DW_TAG_imported_declaration, scope: !20, entity: !1284, file: !1083, line: 200)
!1284 = !DISubprogram(name: "wmemmove", scope: !1082, file: !1082, line: 1433, type: !1285, isLocal: false, isDefinition: false, flags: DIFlagPrototyped, isOptimized: false)
!1285 = !DISubroutineType(types: !1286)
!1286 = !{!1103, !1103, !1116, !1138}
!1287 = !DIImportedEntity(tag: DW_TAG_imported_declaration, scope: !20, entity: !1288, file: !1083, line: 201)
!1288 = !DISubprogram(name: "wmemset", scope: !1082, file: !1082, line: 1428, type: !1289, isLocal: false, isDefinition: false, flags: DIFlagPrototyped, isOptimized: false)
!1289 = !DISubroutineType(types: !1290)
!1290 = !{!1103, !1103, !1104, !1138}
!1291 = !DIImportedEntity(tag: DW_TAG_imported_declaration, scope: !20, entity: !1292, file: !1083, line: 202)
!1292 = !DISubprogram(name: "wprintf", linkageName: "_ZL7wprintfPKwz", scope: !1082, file: !1082, line: 596, type: !1293, isLocal: true, isDefinition: false, flags: DIFlagPrototyped, isOptimized: false)
!1293 = !DISubroutineType(types: !1294)
!1294 = !{!12, !1116, null}
!1295 = !DIImportedEntity(tag: DW_TAG_imported_declaration, scope: !20, entity: !1296, file: !1083, line: 203)
!1296 = !DISubprogram(name: "wscanf", linkageName: "_ZL6wscanfPKwz", scope: !1082, file: !1082, line: 538, type: !1293, isLocal: true, isDefinition: false, flags: DIFlagPrototyped, isOptimized: false)
!1297 = !DIImportedEntity(tag: DW_TAG_imported_declaration, scope: !20, entity: !1298, file: !1083, line: 204)
!1298 = !DISubprogram(name: "wcschr", scope: !1082, file: !1082, line: 1306, type: !1299, isLocal: false, isDefinition: false, flags: DIFlagPrototyped, isOptimized: false)
!1299 = !DISubroutineType(types: !1300)
!1300 = !{!1103, !1116, !1104}
!1301 = !DIImportedEntity(tag: DW_TAG_imported_declaration, scope: !20, entity: !1302, file: !1083, line: 205)
!1302 = !DISubprogram(name: "wcspbrk", scope: !1082, file: !1082, line: 1316, type: !1303, isLocal: false, isDefinition: false, flags: DIFlagPrototyped, isOptimized: false)
!1303 = !DISubroutineType(types: !1304)
!1304 = !{!1103, !1116, !1116}
!1305 = !DIImportedEntity(tag: DW_TAG_imported_declaration, scope: !20, entity: !1306, file: !1083, line: 206)
!1306 = !DISubprogram(name: "wcsrchr", scope: !1082, file: !1082, line: 1317, type: !1299, isLocal: false, isDefinition: false, flags: DIFlagPrototyped, isOptimized: false)
!1307 = !DIImportedEntity(tag: DW_TAG_imported_declaration, scope: !20, entity: !1308, file: !1083, line: 207)
!1308 = !DISubprogram(name: "wcsstr", scope: !1082, file: !1082, line: 1319, type: !1303, isLocal: false, isDefinition: false, flags: DIFlagPrototyped, isOptimized: false)
!1309 = !DIImportedEntity(tag: DW_TAG_imported_declaration, scope: !20, entity: !1310, file: !1083, line: 208)
!1310 = !DISubprogram(name: "wmemchr", scope: !1082, file: !1082, line: 1429, type: !1311, isLocal: false, isDefinition: false, flags: DIFlagPrototyped, isOptimized: false)
!1311 = !DISubroutineType(types: !1312)
!1312 = !{!1103, !1116, !1104, !1138}
!1313 = !DIImportedEntity(tag: DW_TAG_imported_declaration, scope: !384, entity: !1314, file: !1083, line: 248)
!1314 = !DISubprogram(name: "wcstold", scope: !1082, file: !1082, line: 1259, type: !1315, isLocal: false, isDefinition: false, flags: DIFlagPrototyped, isOptimized: false)
!1315 = !DISubroutineType(types: !1316)
!1316 = !{!1317, !1115, !1254}
!1317 = !DIBasicType(name: "long double", size: 64, encoding: DW_ATE_float)
!1318 = !DIImportedEntity(tag: DW_TAG_imported_declaration, scope: !384, entity: !1319, file: !1083, line: 257)
!1319 = !DISubprogram(name: "wcstoll", scope: !1082, file: !1082, line: 1436, type: !1320, isLocal: false, isDefinition: false, flags: DIFlagPrototyped, isOptimized: false)
!1320 = !DISubroutineType(types: !1321)
!1321 = !{!1322, !1115, !1254, !12}
!1322 = !DIBasicType(name: "long long int", size: 64, encoding: DW_ATE_signed)
!1323 = !DIImportedEntity(tag: DW_TAG_imported_declaration, scope: !384, entity: !1324, file: !1083, line: 258)
!1324 = !DISubprogram(name: "wcstoull", scope: !1082, file: !1082, line: 1437, type: !1325, isLocal: false, isDefinition: false, flags: DIFlagPrototyped, isOptimized: false)
!1325 = !DISubroutineType(types: !1326)
!1326 = !{!1327, !1115, !1254, !12}
!1327 = !DIBasicType(name: "long long unsigned int", size: 64, encoding: DW_ATE_unsigned)
!1328 = !DIImportedEntity(tag: DW_TAG_imported_declaration, scope: !20, entity: !1314, file: !1083, line: 264)
!1329 = !DIImportedEntity(tag: DW_TAG_imported_declaration, scope: !20, entity: !1319, file: !1083, line: 265)
!1330 = !DIImportedEntity(tag: DW_TAG_imported_declaration, scope: !20, entity: !1324, file: !1083, line: 266)
!1331 = !DIImportedEntity(tag: DW_TAG_imported_declaration, scope: !20, entity: !1257, file: !1083, line: 280)
!1332 = !DIImportedEntity(tag: DW_TAG_imported_declaration, scope: !20, entity: !1183, file: !1083, line: 283)
!1333 = !DIImportedEntity(tag: DW_TAG_imported_declaration, scope: !20, entity: !1189, file: !1083, line: 286)
!1334 = !DIImportedEntity(tag: DW_TAG_imported_declaration, scope: !20, entity: !1197, file: !1083, line: 289)
!1335 = !DIImportedEntity(tag: DW_TAG_imported_declaration, scope: !20, entity: !1314, file: !1083, line: 293)
!1336 = !DIImportedEntity(tag: DW_TAG_imported_declaration, scope: !20, entity: !1319, file: !1083, line: 294)
!1337 = !DIImportedEntity(tag: DW_TAG_imported_declaration, scope: !20, entity: !1324, file: !1083, line: 295)
!1338 = !DIImportedEntity(tag: DW_TAG_imported_declaration, scope: !20, entity: !1339, file: !1340, line: 57)
!1339 = distinct !DICompositeType(tag: DW_TAG_class_type, name: "exception_ptr", scope: !1341, file: !1340, line: 79, size: 64, flags: DIFlagTypePassByReference, elements: !1342, identifier: "_ZTSNSt15__exception_ptr13exception_ptrE")
!1340 = !DIFile(filename: "C:/Xilinx/2025.1/Vitis/tps/mingw/8.3.0/win64.o/nt\5Clib\5Cgcc\5Cx86_64-w64-mingw32\5C8.3.0\5Cinclude\5Cc++\5Cbits/exception_ptr.h", directory: "C:\5CUsers\5Cjackh\5CDownloads\5CMatrix_Lab4\5Creshape")
!1341 = !DINamespace(name: "__exception_ptr", scope: !20)
!1342 = !{!1343, !1344, !1348, !1351, !1352, !1357, !1358, !1362, !1367, !1371, !1375, !1378, !1379, !1382, !1385}
!1343 = !DIDerivedType(tag: DW_TAG_member, name: "_M_exception_object", scope: !1339, file: !1340, line: 81, baseType: !155, size: 64)
!1344 = !DISubprogram(name: "exception_ptr", scope: !1339, file: !1340, line: 83, type: !1345, isLocal: false, isDefinition: false, scopeLine: 83, flags: DIFlagExplicit | DIFlagPrototyped, isOptimized: false)
!1345 = !DISubroutineType(types: !1346)
!1346 = !{null, !1347, !155}
!1347 = !DIDerivedType(tag: DW_TAG_pointer_type, baseType: !1339, size: 64, flags: DIFlagArtificial | DIFlagObjectPointer)
!1348 = !DISubprogram(name: "_M_addref", linkageName: "_ZNSt15__exception_ptr13exception_ptr9_M_addrefEv", scope: !1339, file: !1340, line: 85, type: !1349, isLocal: false, isDefinition: false, scopeLine: 85, flags: DIFlagPrototyped, isOptimized: false)
!1349 = !DISubroutineType(types: !1350)
!1350 = !{null, !1347}
!1351 = !DISubprogram(name: "_M_release", linkageName: "_ZNSt15__exception_ptr13exception_ptr10_M_releaseEv", scope: !1339, file: !1340, line: 86, type: !1349, isLocal: false, isDefinition: false, scopeLine: 86, flags: DIFlagPrototyped, isOptimized: false)
!1352 = !DISubprogram(name: "_M_get", linkageName: "_ZNKSt15__exception_ptr13exception_ptr6_M_getEv", scope: !1339, file: !1340, line: 88, type: !1353, isLocal: false, isDefinition: false, scopeLine: 88, flags: DIFlagPrototyped, isOptimized: false)
!1353 = !DISubroutineType(types: !1354)
!1354 = !{!155, !1355}
!1355 = !DIDerivedType(tag: DW_TAG_pointer_type, baseType: !1356, size: 64, flags: DIFlagArtificial | DIFlagObjectPointer)
!1356 = !DIDerivedType(tag: DW_TAG_const_type, baseType: !1339)
!1357 = !DISubprogram(name: "exception_ptr", scope: !1339, file: !1340, line: 96, type: !1349, isLocal: false, isDefinition: false, scopeLine: 96, flags: DIFlagPublic | DIFlagPrototyped, isOptimized: false)
!1358 = !DISubprogram(name: "exception_ptr", scope: !1339, file: !1340, line: 98, type: !1359, isLocal: false, isDefinition: false, scopeLine: 98, flags: DIFlagPublic | DIFlagPrototyped, isOptimized: false)
!1359 = !DISubroutineType(types: !1360)
!1360 = !{null, !1347, !1361}
!1361 = !DIDerivedType(tag: DW_TAG_reference_type, baseType: !1356, size: 64)
!1362 = !DISubprogram(name: "exception_ptr", scope: !1339, file: !1340, line: 101, type: !1363, isLocal: false, isDefinition: false, scopeLine: 101, flags: DIFlagPublic | DIFlagPrototyped, isOptimized: false)
!1363 = !DISubroutineType(types: !1364)
!1364 = !{null, !1347, !1365}
!1365 = !DIDerivedType(tag: DW_TAG_typedef, name: "nullptr_t", scope: !20, file: !120, line: 242, baseType: !1366)
!1366 = !DIBasicType(tag: DW_TAG_unspecified_type, name: "decltype(nullptr)")
!1367 = !DISubprogram(name: "exception_ptr", scope: !1339, file: !1340, line: 105, type: !1368, isLocal: false, isDefinition: false, scopeLine: 105, flags: DIFlagPublic | DIFlagPrototyped, isOptimized: false)
!1368 = !DISubroutineType(types: !1369)
!1369 = !{null, !1347, !1370}
!1370 = !DIDerivedType(tag: DW_TAG_rvalue_reference_type, baseType: !1339, size: 64)
!1371 = !DISubprogram(name: "operator=", linkageName: "_ZNSt15__exception_ptr13exception_ptraSERKS0_", scope: !1339, file: !1340, line: 118, type: !1372, isLocal: false, isDefinition: false, scopeLine: 118, flags: DIFlagPublic | DIFlagPrototyped, isOptimized: false)
!1372 = !DISubroutineType(types: !1373)
!1373 = !{!1374, !1347, !1361}
!1374 = !DIDerivedType(tag: DW_TAG_reference_type, baseType: !1339, size: 64)
!1375 = !DISubprogram(name: "operator=", linkageName: "_ZNSt15__exception_ptr13exception_ptraSEOS0_", scope: !1339, file: !1340, line: 122, type: !1376, isLocal: false, isDefinition: false, scopeLine: 122, flags: DIFlagPublic | DIFlagPrototyped, isOptimized: false)
!1376 = !DISubroutineType(types: !1377)
!1377 = !{!1374, !1347, !1370}
!1378 = !DISubprogram(name: "~exception_ptr", scope: !1339, file: !1340, line: 129, type: !1349, isLocal: false, isDefinition: false, scopeLine: 129, flags: DIFlagPublic | DIFlagPrototyped, isOptimized: false)
!1379 = !DISubprogram(name: "swap", linkageName: "_ZNSt15__exception_ptr13exception_ptr4swapERS0_", scope: !1339, file: !1340, line: 132, type: !1380, isLocal: false, isDefinition: false, scopeLine: 132, flags: DIFlagPublic | DIFlagPrototyped, isOptimized: false)
!1380 = !DISubroutineType(types: !1381)
!1381 = !{null, !1347, !1374}
!1382 = !DISubprogram(name: "operator bool", linkageName: "_ZNKSt15__exception_ptr13exception_ptrcvbEv", scope: !1339, file: !1340, line: 144, type: !1383, isLocal: false, isDefinition: false, scopeLine: 144, flags: DIFlagPublic | DIFlagExplicit | DIFlagPrototyped, isOptimized: false)
!1383 = !DISubroutineType(types: !1384)
!1384 = !{!318, !1355}
!1385 = !DISubprogram(name: "__cxa_exception_type", linkageName: "_ZNKSt15__exception_ptr13exception_ptr20__cxa_exception_typeEv", scope: !1339, file: !1340, line: 153, type: !1386, isLocal: false, isDefinition: false, scopeLine: 153, flags: DIFlagPublic | DIFlagPrototyped, isOptimized: false)
!1386 = !DISubroutineType(types: !1387)
!1387 = !{!1388, !1355}
!1388 = !DIDerivedType(tag: DW_TAG_pointer_type, baseType: !1389, size: 64)
!1389 = !DIDerivedType(tag: DW_TAG_const_type, baseType: !1390)
!1390 = distinct !DICompositeType(tag: DW_TAG_class_type, name: "type_info", scope: !20, file: !1391, line: 88, size: 128, flags: DIFlagTypePassByReference, elements: !1392, vtableHolder: !1390, identifier: "_ZTSSt9type_info")
!1391 = !DIFile(filename: "C:/Xilinx/2025.1/Vitis/tps/mingw/8.3.0/win64.o/nt\5Clib\5Cgcc\5Cx86_64-w64-mingw32\5C8.3.0\5Cinclude\5Cc++\5Ctypeinfo", directory: "C:\5CUsers\5Cjackh\5CDownloads\5CMatrix_Lab4\5Creshape")
!1392 = !{!1393, !1394, !1395, !1399, !1403, !1407, !1408, !1409, !1412, !1415, !1416, !1421, !1428, !1431, !1435}
!1393 = !DIDerivedType(tag: DW_TAG_member, name: "_vptr$type_info", scope: !1391, file: !1391, baseType: !73, size: 64, flags: DIFlagArtificial)
!1394 = !DIDerivedType(tag: DW_TAG_member, name: "__name", scope: !1390, file: !1391, line: 171, baseType: !223, size: 64, offset: 64, flags: DIFlagProtected)
!1395 = !DISubprogram(name: "~type_info", scope: !1390, file: !1391, line: 95, type: !1396, isLocal: false, isDefinition: false, scopeLine: 95, containingType: !1390, virtuality: DW_VIRTUALITY_virtual, virtualIndex: 0, flags: DIFlagPublic | DIFlagPrototyped, isOptimized: false)
!1396 = !DISubroutineType(types: !1397)
!1397 = !{null, !1398}
!1398 = !DIDerivedType(tag: DW_TAG_pointer_type, baseType: !1390, size: 64, flags: DIFlagArtificial | DIFlagObjectPointer)
!1399 = !DISubprogram(name: "name", linkageName: "_ZNKSt9type_info4nameEv", scope: !1390, file: !1391, line: 99, type: !1400, isLocal: false, isDefinition: false, scopeLine: 99, flags: DIFlagPublic | DIFlagPrototyped, isOptimized: false)
!1400 = !DISubroutineType(types: !1401)
!1401 = !{!223, !1402}
!1402 = !DIDerivedType(tag: DW_TAG_pointer_type, baseType: !1389, size: 64, flags: DIFlagArtificial | DIFlagObjectPointer)
!1403 = !DISubprogram(name: "before", linkageName: "_ZNKSt9type_info6beforeERKS_", scope: !1390, file: !1391, line: 115, type: !1404, isLocal: false, isDefinition: false, scopeLine: 115, flags: DIFlagPublic | DIFlagPrototyped, isOptimized: false)
!1404 = !DISubroutineType(types: !1405)
!1405 = !{!318, !1402, !1406}
!1406 = !DIDerivedType(tag: DW_TAG_reference_type, baseType: !1389, size: 64)
!1407 = !DISubprogram(name: "operator==", linkageName: "_ZNKSt9type_infoeqERKS_", scope: !1390, file: !1391, line: 120, type: !1404, isLocal: false, isDefinition: false, scopeLine: 120, flags: DIFlagPublic | DIFlagPrototyped, isOptimized: false)
!1408 = !DISubprogram(name: "operator!=", linkageName: "_ZNKSt9type_infoneERKS_", scope: !1390, file: !1391, line: 136, type: !1404, isLocal: false, isDefinition: false, scopeLine: 136, flags: DIFlagPublic | DIFlagPrototyped, isOptimized: false)
!1409 = !DISubprogram(name: "hash_code", linkageName: "_ZNKSt9type_info9hash_codeEv", scope: !1390, file: !1391, line: 140, type: !1410, isLocal: false, isDefinition: false, scopeLine: 140, flags: DIFlagPublic | DIFlagPrototyped, isOptimized: false)
!1410 = !DISubroutineType(types: !1411)
!1411 = !{!214, !1402}
!1412 = !DISubprogram(name: "__is_pointer_p", linkageName: "_ZNKSt9type_info14__is_pointer_pEv", scope: !1390, file: !1391, line: 152, type: !1413, isLocal: false, isDefinition: false, scopeLine: 152, containingType: !1390, virtuality: DW_VIRTUALITY_virtual, virtualIndex: 2, flags: DIFlagPublic | DIFlagPrototyped, isOptimized: false)
!1413 = !DISubroutineType(types: !1414)
!1414 = !{!318, !1402}
!1415 = !DISubprogram(name: "__is_function_p", linkageName: "_ZNKSt9type_info15__is_function_pEv", scope: !1390, file: !1391, line: 155, type: !1413, isLocal: false, isDefinition: false, scopeLine: 155, containingType: !1390, virtuality: DW_VIRTUALITY_virtual, virtualIndex: 3, flags: DIFlagPublic | DIFlagPrototyped, isOptimized: false)
!1416 = !DISubprogram(name: "__do_catch", linkageName: "_ZNKSt9type_info10__do_catchEPKS_PPvj", scope: !1390, file: !1391, line: 163, type: !1417, isLocal: false, isDefinition: false, scopeLine: 163, containingType: !1390, virtuality: DW_VIRTUALITY_virtual, virtualIndex: 4, flags: DIFlagPublic | DIFlagPrototyped, isOptimized: false)
!1417 = !DISubroutineType(types: !1418)
!1418 = !{!318, !1402, !1388, !1419, !1420}
!1419 = !DIDerivedType(tag: DW_TAG_pointer_type, baseType: !155, size: 64)
!1420 = !DIBasicType(name: "unsigned int", size: 32, encoding: DW_ATE_unsigned)
!1421 = !DISubprogram(name: "__do_upcast", linkageName: "_ZNKSt9type_info11__do_upcastEPKN10__cxxabiv117__class_type_infoEPPv", scope: !1390, file: !1391, line: 167, type: !1422, isLocal: false, isDefinition: false, scopeLine: 167, containingType: !1390, virtuality: DW_VIRTUALITY_virtual, virtualIndex: 5, flags: DIFlagPublic | DIFlagPrototyped, isOptimized: false)
!1422 = !DISubroutineType(types: !1423)
!1423 = !{!318, !1402, !1424, !1419}
!1424 = !DIDerivedType(tag: DW_TAG_pointer_type, baseType: !1425, size: 64)
!1425 = !DIDerivedType(tag: DW_TAG_const_type, baseType: !1426)
!1426 = distinct !DICompositeType(tag: DW_TAG_class_type, name: "__class_type_info", scope: !1427, file: !1391, line: 45, flags: DIFlagFwdDecl, identifier: "_ZTSN10__cxxabiv117__class_type_infoE")
!1427 = !DINamespace(name: "__cxxabiv1", scope: null)
!1428 = !DISubprogram(name: "type_info", scope: !1390, file: !1391, line: 173, type: !1429, isLocal: false, isDefinition: false, scopeLine: 173, flags: DIFlagProtected | DIFlagExplicit | DIFlagPrototyped, isOptimized: false)
!1429 = !DISubroutineType(types: !1430)
!1430 = !{null, !1398, !223}
!1431 = !DISubprogram(name: "operator=", linkageName: "_ZNSt9type_infoaSERKS_", scope: !1390, file: !1391, line: 177, type: !1432, isLocal: false, isDefinition: false, scopeLine: 177, flags: DIFlagPrototyped, isOptimized: false)
!1432 = !DISubroutineType(types: !1433)
!1433 = !{!1434, !1398, !1406}
!1434 = !DIDerivedType(tag: DW_TAG_reference_type, baseType: !1390, size: 64)
!1435 = !DISubprogram(name: "type_info", scope: !1390, file: !1391, line: 178, type: !1436, isLocal: false, isDefinition: false, scopeLine: 178, flags: DIFlagPrototyped, isOptimized: false)
!1436 = !DISubroutineType(types: !1437)
!1437 = !{null, !1398, !1406}
!1438 = !DIImportedEntity(tag: DW_TAG_imported_declaration, scope: !1341, entity: !1439, file: !1340, line: 73)
!1439 = !DISubprogram(name: "rethrow_exception", linkageName: "_ZSt17rethrow_exceptionNSt15__exception_ptr13exception_ptrE", scope: !20, file: !1340, line: 69, type: !1440, isLocal: false, isDefinition: false, flags: DIFlagPrototyped | DIFlagNoReturn, isOptimized: false)
!1440 = !DISubroutineType(types: !1441)
!1441 = !{null, !1339}
!1442 = !DIImportedEntity(tag: DW_TAG_imported_module, scope: !1443, entity: !1444, file: !1445, line: 58)
!1443 = !DINamespace(name: "__gnu_debug", scope: null)
!1444 = !DINamespace(name: "__debug", scope: !20)
!1445 = !DIFile(filename: "C:/Xilinx/2025.1/Vitis/tps/mingw/8.3.0/win64.o/nt\5Clib\5Cgcc\5Cx86_64-w64-mingw32\5C8.3.0\5Cinclude\5Cc++\5Cdebug/debug.h", directory: "C:\5CUsers\5Cjackh\5CDownloads\5CMatrix_Lab4\5Creshape")
!1446 = !DIImportedEntity(tag: DW_TAG_imported_declaration, scope: !20, entity: !1447, file: !1450, line: 48)
!1447 = !DIDerivedType(tag: DW_TAG_typedef, name: "int8_t", file: !1448, line: 35, baseType: !1449)
!1448 = !DIFile(filename: "C:/Xilinx/2025.1/Vitis/tps/mingw/8.3.0/win64.o/nt\5Cx86_64-w64-mingw32\5Cinclude\5Cstdint.h", directory: "C:\5CUsers\5Cjackh\5CDownloads\5CMatrix_Lab4\5Creshape")
!1449 = !DIBasicType(name: "signed char", size: 8, encoding: DW_ATE_signed_char)
!1450 = !DIFile(filename: "C:/Xilinx/2025.1/Vitis/tps/mingw/8.3.0/win64.o/nt\5Clib\5Cgcc\5Cx86_64-w64-mingw32\5C8.3.0\5Cinclude\5Cc++\5Ccstdint", directory: "C:\5CUsers\5Cjackh\5CDownloads\5CMatrix_Lab4\5Creshape")
!1451 = !DIImportedEntity(tag: DW_TAG_imported_declaration, scope: !20, entity: !1452, file: !1450, line: 49)
!1452 = !DIDerivedType(tag: DW_TAG_typedef, name: "int16_t", file: !1448, line: 37, baseType: !1453)
!1453 = !DIBasicType(name: "short", size: 16, encoding: DW_ATE_signed)
!1454 = !DIImportedEntity(tag: DW_TAG_imported_declaration, scope: !20, entity: !1455, file: !1450, line: 50)
!1455 = !DIDerivedType(tag: DW_TAG_typedef, name: "int32_t", file: !1448, line: 39, baseType: !12)
!1456 = !DIImportedEntity(tag: DW_TAG_imported_declaration, scope: !20, entity: !1457, file: !1450, line: 51)
!1457 = !DIDerivedType(tag: DW_TAG_typedef, name: "int64_t", file: !1448, line: 41, baseType: !1322)
!1458 = !DIImportedEntity(tag: DW_TAG_imported_declaration, scope: !20, entity: !1459, file: !1450, line: 53)
!1459 = !DIDerivedType(tag: DW_TAG_typedef, name: "int_fast8_t", file: !1448, line: 58, baseType: !1449)
!1460 = !DIImportedEntity(tag: DW_TAG_imported_declaration, scope: !20, entity: !1461, file: !1450, line: 54)
!1461 = !DIDerivedType(tag: DW_TAG_typedef, name: "int_fast16_t", file: !1448, line: 60, baseType: !1453)
!1462 = !DIImportedEntity(tag: DW_TAG_imported_declaration, scope: !20, entity: !1463, file: !1450, line: 55)
!1463 = !DIDerivedType(tag: DW_TAG_typedef, name: "int_fast32_t", file: !1448, line: 62, baseType: !12)
!1464 = !DIImportedEntity(tag: DW_TAG_imported_declaration, scope: !20, entity: !1465, file: !1450, line: 56)
!1465 = !DIDerivedType(tag: DW_TAG_typedef, name: "int_fast64_t", file: !1448, line: 64, baseType: !1322)
!1466 = !DIImportedEntity(tag: DW_TAG_imported_declaration, scope: !20, entity: !1467, file: !1450, line: 58)
!1467 = !DIDerivedType(tag: DW_TAG_typedef, name: "int_least8_t", file: !1448, line: 45, baseType: !1449)
!1468 = !DIImportedEntity(tag: DW_TAG_imported_declaration, scope: !20, entity: !1469, file: !1450, line: 59)
!1469 = !DIDerivedType(tag: DW_TAG_typedef, name: "int_least16_t", file: !1448, line: 47, baseType: !1453)
!1470 = !DIImportedEntity(tag: DW_TAG_imported_declaration, scope: !20, entity: !1471, file: !1450, line: 60)
!1471 = !DIDerivedType(tag: DW_TAG_typedef, name: "int_least32_t", file: !1448, line: 49, baseType: !12)
!1472 = !DIImportedEntity(tag: DW_TAG_imported_declaration, scope: !20, entity: !1473, file: !1450, line: 61)
!1473 = !DIDerivedType(tag: DW_TAG_typedef, name: "int_least64_t", file: !1448, line: 51, baseType: !1322)
!1474 = !DIImportedEntity(tag: DW_TAG_imported_declaration, scope: !20, entity: !1475, file: !1450, line: 63)
!1475 = !DIDerivedType(tag: DW_TAG_typedef, name: "intmax_t", file: !1448, line: 68, baseType: !1322)
!1476 = !DIImportedEntity(tag: DW_TAG_imported_declaration, scope: !20, entity: !1477, file: !1450, line: 64)
!1477 = !DIDerivedType(tag: DW_TAG_typedef, name: "intptr_t", file: !1086, line: 62, baseType: !121)
!1478 = !DIImportedEntity(tag: DW_TAG_imported_declaration, scope: !20, entity: !1479, file: !1450, line: 66)
!1479 = !DIDerivedType(tag: DW_TAG_typedef, name: "uint8_t", file: !1448, line: 36, baseType: !1480)
!1480 = !DIBasicType(name: "unsigned char", size: 8, encoding: DW_ATE_unsigned_char)
!1481 = !DIImportedEntity(tag: DW_TAG_imported_declaration, scope: !20, entity: !1482, file: !1450, line: 67)
!1482 = !DIDerivedType(tag: DW_TAG_typedef, name: "uint16_t", file: !1448, line: 38, baseType: !1087)
!1483 = !DIImportedEntity(tag: DW_TAG_imported_declaration, scope: !20, entity: !1484, file: !1450, line: 68)
!1484 = !DIDerivedType(tag: DW_TAG_typedef, name: "uint32_t", file: !1448, line: 40, baseType: !1420)
!1485 = !DIImportedEntity(tag: DW_TAG_imported_declaration, scope: !20, entity: !1486, file: !1450, line: 69)
!1486 = !DIDerivedType(tag: DW_TAG_typedef, name: "uint64_t", file: !1448, line: 42, baseType: !1327)
!1487 = !DIImportedEntity(tag: DW_TAG_imported_declaration, scope: !20, entity: !1488, file: !1450, line: 71)
!1488 = !DIDerivedType(tag: DW_TAG_typedef, name: "uint_fast8_t", file: !1448, line: 59, baseType: !1480)
!1489 = !DIImportedEntity(tag: DW_TAG_imported_declaration, scope: !20, entity: !1490, file: !1450, line: 72)
!1490 = !DIDerivedType(tag: DW_TAG_typedef, name: "uint_fast16_t", file: !1448, line: 61, baseType: !1087)
!1491 = !DIImportedEntity(tag: DW_TAG_imported_declaration, scope: !20, entity: !1492, file: !1450, line: 73)
!1492 = !DIDerivedType(tag: DW_TAG_typedef, name: "uint_fast32_t", file: !1448, line: 63, baseType: !1420)
!1493 = !DIImportedEntity(tag: DW_TAG_imported_declaration, scope: !20, entity: !1494, file: !1450, line: 74)
!1494 = !DIDerivedType(tag: DW_TAG_typedef, name: "uint_fast64_t", file: !1448, line: 65, baseType: !1327)
!1495 = !DIImportedEntity(tag: DW_TAG_imported_declaration, scope: !20, entity: !1496, file: !1450, line: 76)
!1496 = !DIDerivedType(tag: DW_TAG_typedef, name: "uint_least8_t", file: !1448, line: 46, baseType: !1480)
!1497 = !DIImportedEntity(tag: DW_TAG_imported_declaration, scope: !20, entity: !1498, file: !1450, line: 77)
!1498 = !DIDerivedType(tag: DW_TAG_typedef, name: "uint_least16_t", file: !1448, line: 48, baseType: !1087)
!1499 = !DIImportedEntity(tag: DW_TAG_imported_declaration, scope: !20, entity: !1500, file: !1450, line: 78)
!1500 = !DIDerivedType(tag: DW_TAG_typedef, name: "uint_least32_t", file: !1448, line: 50, baseType: !1420)
!1501 = !DIImportedEntity(tag: DW_TAG_imported_declaration, scope: !20, entity: !1502, file: !1450, line: 79)
!1502 = !DIDerivedType(tag: DW_TAG_typedef, name: "uint_least64_t", file: !1448, line: 52, baseType: !1327)
!1503 = !DIImportedEntity(tag: DW_TAG_imported_declaration, scope: !20, entity: !1504, file: !1450, line: 81)
!1504 = !DIDerivedType(tag: DW_TAG_typedef, name: "uintmax_t", file: !1448, line: 69, baseType: !1327)
!1505 = !DIImportedEntity(tag: DW_TAG_imported_declaration, scope: !20, entity: !1506, file: !1450, line: 82)
!1506 = !DIDerivedType(tag: DW_TAG_typedef, name: "uintptr_t", file: !1086, line: 75, baseType: !215)
!1507 = !DIImportedEntity(tag: DW_TAG_imported_declaration, scope: !20, entity: !1508, file: !1510, line: 53)
!1508 = distinct !DICompositeType(tag: DW_TAG_structure_type, name: "lconv", file: !1509, line: 45, size: 704, align: 64, flags: DIFlagFwdDecl, identifier: "_ZTS5lconv")
!1509 = !DIFile(filename: "C:/Xilinx/2025.1/Vitis/tps/mingw/8.3.0/win64.o/nt\5Cx86_64-w64-mingw32\5Cinclude\5Clocale.h", directory: "C:\5CUsers\5Cjackh\5CDownloads\5CMatrix_Lab4\5Creshape")
!1510 = !DIFile(filename: "C:/Xilinx/2025.1/Vitis/tps/mingw/8.3.0/win64.o/nt\5Clib\5Cgcc\5Cx86_64-w64-mingw32\5C8.3.0\5Cinclude\5Cc++\5Cclocale", directory: "C:\5CUsers\5Cjackh\5CDownloads\5CMatrix_Lab4\5Creshape")
!1511 = !DIImportedEntity(tag: DW_TAG_imported_declaration, scope: !20, entity: !1512, file: !1510, line: 54)
!1512 = !DISubprogram(name: "setlocale", scope: !1509, file: !1509, line: 80, type: !1513, isLocal: false, isDefinition: false, flags: DIFlagPrototyped, isOptimized: false)
!1513 = !DISubroutineType(types: !1514)
!1514 = !{!279, !12, !223}
!1515 = !DIImportedEntity(tag: DW_TAG_imported_declaration, scope: !20, entity: !1516, file: !1510, line: 55)
!1516 = !DISubprogram(name: "localeconv", scope: !1509, file: !1509, line: 81, type: !1517, isLocal: false, isDefinition: false, flags: DIFlagPrototyped, isOptimized: false)
!1517 = !DISubroutineType(types: !1518)
!1518 = !{!1519}
!1519 = !DIDerivedType(tag: DW_TAG_pointer_type, baseType: !1508, size: 64)
!1520 = !DIImportedEntity(tag: DW_TAG_imported_declaration, scope: !20, entity: !1521, file: !1525, line: 64)
!1521 = !DISubprogram(name: "isalnum", scope: !1522, file: !1522, line: 124, type: !1523, isLocal: false, isDefinition: false, flags: DIFlagPrototyped, isOptimized: false)
!1522 = !DIFile(filename: "C:/Xilinx/2025.1/Vitis/tps/mingw/8.3.0/win64.o/nt\5Cx86_64-w64-mingw32\5Cinclude\5Cctype.h", directory: "C:\5CUsers\5Cjackh\5CDownloads\5CMatrix_Lab4\5Creshape")
!1523 = !DISubroutineType(types: !1524)
!1524 = !{!12, !12}
!1525 = !DIFile(filename: "C:/Xilinx/2025.1/Vitis/tps/mingw/8.3.0/win64.o/nt\5Clib\5Cgcc\5Cx86_64-w64-mingw32\5C8.3.0\5Cinclude\5Cc++\5Ccctype", directory: "C:\5CUsers\5Cjackh\5CDownloads\5CMatrix_Lab4\5Creshape")
!1526 = !DIImportedEntity(tag: DW_TAG_imported_declaration, scope: !20, entity: !1527, file: !1525, line: 65)
!1527 = !DISubprogram(name: "isalpha", scope: !1522, file: !1522, line: 110, type: !1523, isLocal: false, isDefinition: false, flags: DIFlagPrototyped, isOptimized: false)
!1528 = !DIImportedEntity(tag: DW_TAG_imported_declaration, scope: !20, entity: !1529, file: !1525, line: 66)
!1529 = !DISubprogram(name: "iscntrl", scope: !1522, file: !1522, line: 130, type: !1523, isLocal: false, isDefinition: false, flags: DIFlagPrototyped, isOptimized: false)
!1530 = !DIImportedEntity(tag: DW_TAG_imported_declaration, scope: !20, entity: !1531, file: !1525, line: 67)
!1531 = !DISubprogram(name: "isdigit", scope: !1522, file: !1522, line: 116, type: !1523, isLocal: false, isDefinition: false, flags: DIFlagPrototyped, isOptimized: false)
!1532 = !DIImportedEntity(tag: DW_TAG_imported_declaration, scope: !20, entity: !1533, file: !1525, line: 68)
!1533 = !DISubprogram(name: "isgraph", scope: !1522, file: !1522, line: 128, type: !1523, isLocal: false, isDefinition: false, flags: DIFlagPrototyped, isOptimized: false)
!1534 = !DIImportedEntity(tag: DW_TAG_imported_declaration, scope: !20, entity: !1535, file: !1525, line: 69)
!1535 = !DISubprogram(name: "islower", scope: !1522, file: !1522, line: 114, type: !1523, isLocal: false, isDefinition: false, flags: DIFlagPrototyped, isOptimized: false)
!1536 = !DIImportedEntity(tag: DW_TAG_imported_declaration, scope: !20, entity: !1537, file: !1525, line: 70)
!1537 = !DISubprogram(name: "isprint", scope: !1522, file: !1522, line: 126, type: !1523, isLocal: false, isDefinition: false, flags: DIFlagPrototyped, isOptimized: false)
!1538 = !DIImportedEntity(tag: DW_TAG_imported_declaration, scope: !20, entity: !1539, file: !1525, line: 71)
!1539 = !DISubprogram(name: "ispunct", scope: !1522, file: !1522, line: 122, type: !1523, isLocal: false, isDefinition: false, flags: DIFlagPrototyped, isOptimized: false)
!1540 = !DIImportedEntity(tag: DW_TAG_imported_declaration, scope: !20, entity: !1541, file: !1525, line: 72)
!1541 = !DISubprogram(name: "isspace", scope: !1522, file: !1522, line: 120, type: !1523, isLocal: false, isDefinition: false, flags: DIFlagPrototyped, isOptimized: false)
!1542 = !DIImportedEntity(tag: DW_TAG_imported_declaration, scope: !20, entity: !1543, file: !1525, line: 73)
!1543 = !DISubprogram(name: "isupper", scope: !1522, file: !1522, line: 112, type: !1523, isLocal: false, isDefinition: false, flags: DIFlagPrototyped, isOptimized: false)
!1544 = !DIImportedEntity(tag: DW_TAG_imported_declaration, scope: !20, entity: !1545, file: !1525, line: 74)
!1545 = !DISubprogram(name: "isxdigit", scope: !1522, file: !1522, line: 118, type: !1523, isLocal: false, isDefinition: false, flags: DIFlagPrototyped, isOptimized: false)
!1546 = !DIImportedEntity(tag: DW_TAG_imported_declaration, scope: !20, entity: !1547, file: !1525, line: 75)
!1547 = !DISubprogram(name: "tolower", scope: !1522, file: !1522, line: 133, type: !1523, isLocal: false, isDefinition: false, flags: DIFlagPrototyped, isOptimized: false)
!1548 = !DIImportedEntity(tag: DW_TAG_imported_declaration, scope: !20, entity: !1549, file: !1525, line: 76)
!1549 = !DISubprogram(name: "toupper", scope: !1522, file: !1522, line: 132, type: !1523, isLocal: false, isDefinition: false, flags: DIFlagPrototyped, isOptimized: false)
!1550 = !DIImportedEntity(tag: DW_TAG_imported_declaration, scope: !20, entity: !1551, file: !1525, line: 87)
!1551 = !DISubprogram(name: "isblank", scope: !1522, file: !1522, line: 144, type: !1523, isLocal: false, isDefinition: false, flags: DIFlagPrototyped, isOptimized: false)
!1552 = !DIImportedEntity(tag: DW_TAG_imported_declaration, scope: !384, entity: !214, file: !403, line: 44)
!1553 = !DIImportedEntity(tag: DW_TAG_imported_declaration, scope: !384, entity: !119, file: !403, line: 45)
!1554 = !DIImportedEntity(tag: DW_TAG_imported_declaration, scope: !20, entity: !1555, file: !1557, line: 52)
!1555 = !DISubprogram(name: "abs", scope: !1556, file: !1556, line: 383, type: !1523, isLocal: false, isDefinition: false, flags: DIFlagPrototyped, isOptimized: false)
!1556 = !DIFile(filename: "C:/Xilinx/2025.1/Vitis/tps/mingw/8.3.0/win64.o/nt\5Cx86_64-w64-mingw32\5Cinclude\5Cstdlib.h", directory: "C:\5CUsers\5Cjackh\5CDownloads\5CMatrix_Lab4\5Creshape")
!1557 = !DIFile(filename: "C:/Xilinx/2025.1/Vitis/tps/mingw/8.3.0/win64.o/nt\5Clib\5Cgcc\5Cx86_64-w64-mingw32\5C8.3.0\5Cinclude\5Cc++\5Cbits/std_abs.h", directory: "C:\5CUsers\5Cjackh\5CDownloads\5CMatrix_Lab4\5Creshape")
!1558 = !DIImportedEntity(tag: DW_TAG_imported_declaration, scope: !20, entity: !1559, file: !1561, line: 127)
!1559 = !DIDerivedType(tag: DW_TAG_typedef, name: "div_t", file: !1556, line: 62, baseType: !1560)
!1560 = distinct !DICompositeType(tag: DW_TAG_structure_type, name: "_div_t", file: !1556, line: 59, size: 64, align: 32, flags: DIFlagFwdDecl, identifier: "_ZTS6_div_t")
!1561 = !DIFile(filename: "C:/Xilinx/2025.1/Vitis/tps/mingw/8.3.0/win64.o/nt\5Clib\5Cgcc\5Cx86_64-w64-mingw32\5C8.3.0\5Cinclude\5Cc++\5Ccstdlib", directory: "C:\5CUsers\5Cjackh\5CDownloads\5CMatrix_Lab4\5Creshape")
!1562 = !DIImportedEntity(tag: DW_TAG_imported_declaration, scope: !20, entity: !1563, file: !1561, line: 128)
!1563 = !DIDerivedType(tag: DW_TAG_typedef, name: "ldiv_t", file: !1556, line: 67, baseType: !1564)
!1564 = distinct !DICompositeType(tag: DW_TAG_structure_type, name: "_ldiv_t", file: !1556, line: 64, size: 128, flags: DIFlagTypePassByValue, elements: !1565, identifier: "_ZTS7_ldiv_t")
!1565 = !{!1566, !1567}
!1566 = !DIDerivedType(tag: DW_TAG_member, name: "quot", scope: !1564, file: !1556, line: 65, baseType: !121, size: 64)
!1567 = !DIDerivedType(tag: DW_TAG_member, name: "rem", scope: !1564, file: !1556, line: 66, baseType: !121, size: 64, offset: 64)
!1568 = !DIImportedEntity(tag: DW_TAG_imported_declaration, scope: !20, entity: !1569, file: !1561, line: 130)
!1569 = !DISubprogram(name: "abort", scope: !1556, file: !1556, line: 374, type: !208, isLocal: false, isDefinition: false, flags: DIFlagPrototyped | DIFlagNoReturn, isOptimized: false)
!1570 = !DIImportedEntity(tag: DW_TAG_imported_declaration, scope: !20, entity: !1571, file: !1561, line: 134)
!1571 = !DISubprogram(name: "atexit", scope: !1556, file: !1556, line: 394, type: !1572, isLocal: false, isDefinition: false, flags: DIFlagPrototyped, isOptimized: false)
!1572 = !DISubroutineType(types: !1573)
!1573 = !{!12, !1574}
!1574 = !DIDerivedType(tag: DW_TAG_pointer_type, baseType: !208, size: 64)
!1575 = !DIImportedEntity(tag: DW_TAG_imported_declaration, scope: !20, entity: !1576, file: !1561, line: 140)
!1576 = !DISubprogram(name: "atof", scope: !1556, file: !1556, line: 397, type: !1577, isLocal: false, isDefinition: false, flags: DIFlagPrototyped, isOptimized: false)
!1577 = !DISubroutineType(types: !1578)
!1578 = !{!1253, !223}
!1579 = !DIImportedEntity(tag: DW_TAG_imported_declaration, scope: !20, entity: !1580, file: !1561, line: 141)
!1580 = !DISubprogram(name: "atoi", scope: !1556, file: !1556, line: 400, type: !1581, isLocal: false, isDefinition: false, flags: DIFlagPrototyped, isOptimized: false)
!1581 = !DISubroutineType(types: !1582)
!1582 = !{!12, !223}
!1583 = !DIImportedEntity(tag: DW_TAG_imported_declaration, scope: !20, entity: !1584, file: !1561, line: 142)
!1584 = !DISubprogram(name: "atol", scope: !1556, file: !1556, line: 402, type: !1585, isLocal: false, isDefinition: false, flags: DIFlagPrototyped, isOptimized: false)
!1585 = !DISubroutineType(types: !1586)
!1586 = !{!121, !223}
!1587 = !DIImportedEntity(tag: DW_TAG_imported_declaration, scope: !20, entity: !1588, file: !1561, line: 143)
!1588 = !DISubprogram(name: "bsearch", scope: !1556, file: !1556, line: 406, type: !1589, isLocal: false, isDefinition: false, flags: DIFlagPrototyped, isOptimized: false)
!1589 = !DISubroutineType(types: !1590)
!1590 = !{!155, !432, !432, !1591, !1591, !1593}
!1591 = !DIDerivedType(tag: DW_TAG_typedef, name: "size_t", file: !1592, line: 62, baseType: !215)
!1592 = !DIFile(filename: "C:\5CXilinx\5C2025.1\5CVitis\5Cwin64\5Ctools\5Cclang-3.9-csynth\5Clib\5Cclang\5C7.0.0\5Cinclude\5Cstddef.h", directory: "C:\5CUsers\5Cjackh\5CDownloads\5CMatrix_Lab4\5Creshape")
!1593 = !DIDerivedType(tag: DW_TAG_pointer_type, baseType: !1594, size: 64)
!1594 = !DISubroutineType(types: !1595)
!1595 = !{!12, !432, !432}
!1596 = !DIImportedEntity(tag: DW_TAG_imported_declaration, scope: !20, entity: !1597, file: !1561, line: 144)
!1597 = !DISubprogram(name: "calloc", scope: !1556, file: !1556, line: 501, type: !1598, isLocal: false, isDefinition: false, flags: DIFlagPrototyped, isOptimized: false)
!1598 = !DISubroutineType(types: !1599)
!1599 = !{!155, !1591, !1591}
!1600 = !DIImportedEntity(tag: DW_TAG_imported_declaration, scope: !20, entity: !1601, file: !1561, line: 145)
!1601 = !DISubprogram(name: "div", scope: !1556, file: !1556, line: 412, type: !1602, isLocal: false, isDefinition: false, flags: DIFlagPrototyped, isOptimized: false)
!1602 = !DISubroutineType(types: !1603)
!1603 = !{!1559, !12, !12}
!1604 = !DIImportedEntity(tag: DW_TAG_imported_declaration, scope: !20, entity: !1605, file: !1561, line: 146)
!1605 = !DISubprogram(name: "exit", scope: !1556, file: !1556, line: 360, type: !1606, isLocal: false, isDefinition: false, flags: DIFlagPrototyped | DIFlagNoReturn, isOptimized: false)
!1606 = !DISubroutineType(types: !1607)
!1607 = !{null, !12}
!1608 = !DIImportedEntity(tag: DW_TAG_imported_declaration, scope: !20, entity: !1609, file: !1561, line: 147)
!1609 = !DISubprogram(name: "free", scope: !1556, file: !1556, line: 502, type: !1610, isLocal: false, isDefinition: false, flags: DIFlagPrototyped, isOptimized: false)
!1610 = !DISubroutineType(types: !1611)
!1611 = !{null, !155}
!1612 = !DIImportedEntity(tag: DW_TAG_imported_declaration, scope: !20, entity: !1613, file: !1561, line: 148)
!1613 = !DISubprogram(name: "getenv", scope: !1556, file: !1556, line: 413, type: !1614, isLocal: false, isDefinition: false, flags: DIFlagPrototyped, isOptimized: false)
!1614 = !DISubroutineType(types: !1615)
!1615 = !{!279, !223}
!1616 = !DIImportedEntity(tag: DW_TAG_imported_declaration, scope: !20, entity: !1617, file: !1561, line: 149)
!1617 = !DISubprogram(name: "labs", scope: !1556, file: !1556, line: 384, type: !1618, isLocal: false, isDefinition: false, flags: DIFlagPrototyped, isOptimized: false)
!1618 = !DISubroutineType(types: !1619)
!1619 = !{!121, !121}
!1620 = !DIImportedEntity(tag: DW_TAG_imported_declaration, scope: !20, entity: !1621, file: !1561, line: 150)
!1621 = !DISubprogram(name: "ldiv", scope: !1556, file: !1556, line: 423, type: !1622, isLocal: false, isDefinition: false, flags: DIFlagPrototyped, isOptimized: false)
!1622 = !DISubroutineType(types: !1623)
!1623 = !{!1563, !121, !121}
!1624 = !DIImportedEntity(tag: DW_TAG_imported_declaration, scope: !20, entity: !1625, file: !1561, line: 151)
!1625 = !DISubprogram(name: "malloc", scope: !1556, file: !1556, line: 503, type: !1626, isLocal: false, isDefinition: false, flags: DIFlagPrototyped, isOptimized: false)
!1626 = !DISubroutineType(types: !1627)
!1627 = !{!155, !1591}
!1628 = !DIImportedEntity(tag: DW_TAG_imported_declaration, scope: !20, entity: !1629, file: !1561, line: 153)
!1629 = !DISubprogram(name: "mblen", scope: !1556, file: !1556, line: 425, type: !1630, isLocal: false, isDefinition: false, flags: DIFlagPrototyped, isOptimized: false)
!1630 = !DISubroutineType(types: !1631)
!1631 = !{!12, !223, !1591}
!1632 = !DIImportedEntity(tag: DW_TAG_imported_declaration, scope: !20, entity: !1633, file: !1561, line: 154)
!1633 = !DISubprogram(name: "mbstowcs", scope: !1556, file: !1556, line: 433, type: !1634, isLocal: false, isDefinition: false, flags: DIFlagPrototyped, isOptimized: false)
!1634 = !DISubroutineType(types: !1635)
!1635 = !{!1591, !1105, !1139, !1591}
!1636 = !DIImportedEntity(tag: DW_TAG_imported_declaration, scope: !20, entity: !1637, file: !1561, line: 155)
!1637 = !DISubprogram(name: "mbtowc", scope: !1556, file: !1556, line: 431, type: !1638, isLocal: false, isDefinition: false, flags: DIFlagPrototyped, isOptimized: false)
!1638 = !DISubroutineType(types: !1639)
!1639 = !{!12, !1105, !1139, !1591}
!1640 = !DIImportedEntity(tag: DW_TAG_imported_declaration, scope: !20, entity: !1641, file: !1561, line: 157)
!1641 = !DISubprogram(name: "qsort", scope: !1556, file: !1556, line: 407, type: !1642, isLocal: false, isDefinition: false, flags: DIFlagPrototyped, isOptimized: false)
!1642 = !DISubroutineType(types: !1643)
!1643 = !{null, !155, !1591, !1591, !1593}
!1644 = !DIImportedEntity(tag: DW_TAG_imported_declaration, scope: !20, entity: !1645, file: !1561, line: 163)
!1645 = !DISubprogram(name: "rand", scope: !1556, file: !1556, line: 436, type: !75, isLocal: false, isDefinition: false, flags: DIFlagPrototyped, isOptimized: false)
!1646 = !DIImportedEntity(tag: DW_TAG_imported_declaration, scope: !20, entity: !1647, file: !1561, line: 164)
!1647 = !DISubprogram(name: "realloc", scope: !1556, file: !1556, line: 504, type: !1648, isLocal: false, isDefinition: false, flags: DIFlagPrototyped, isOptimized: false)
!1648 = !DISubroutineType(types: !1649)
!1649 = !{!155, !155, !1591}
!1650 = !DIImportedEntity(tag: DW_TAG_imported_declaration, scope: !20, entity: !1651, file: !1561, line: 165)
!1651 = !DISubprogram(name: "srand", scope: !1556, file: !1556, line: 438, type: !1652, isLocal: false, isDefinition: false, flags: DIFlagPrototyped, isOptimized: false)
!1652 = !DISubroutineType(types: !1653)
!1653 = !{null, !1420}
!1654 = !DIImportedEntity(tag: DW_TAG_imported_declaration, scope: !20, entity: !1655, file: !1561, line: 166)
!1655 = !DISubprogram(name: "strtod", linkageName: "_ZL6strtodPKcPPc", scope: !1556, file: !1556, line: 450, type: !1656, isLocal: true, isDefinition: false, flags: DIFlagPrototyped, isOptimized: false)
!1656 = !DISubroutineType(types: !1657)
!1657 = !{!1253, !1139, !1658}
!1658 = !DIDerivedType(tag: DW_TAG_restrict_type, baseType: !278)
!1659 = !DIImportedEntity(tag: DW_TAG_imported_declaration, scope: !20, entity: !1660, file: !1561, line: 167)
!1660 = !DISubprogram(name: "strtol", scope: !1556, file: !1556, line: 485, type: !1661, isLocal: false, isDefinition: false, flags: DIFlagPrototyped, isOptimized: false)
!1661 = !DISubroutineType(types: !1662)
!1662 = !{!121, !1139, !1658, !12}
!1663 = !DIImportedEntity(tag: DW_TAG_imported_declaration, scope: !20, entity: !1664, file: !1561, line: 168)
!1664 = !DISubprogram(name: "strtoul", scope: !1556, file: !1556, line: 487, type: !1665, isLocal: false, isDefinition: false, flags: DIFlagPrototyped, isOptimized: false)
!1665 = !DISubroutineType(types: !1666)
!1666 = !{!215, !1139, !1658, !12}
!1667 = !DIImportedEntity(tag: DW_TAG_imported_declaration, scope: !20, entity: !1668, file: !1561, line: 169)
!1668 = !DISubprogram(name: "system", scope: !1556, file: !1556, line: 491, type: !1581, isLocal: false, isDefinition: false, flags: DIFlagPrototyped, isOptimized: false)
!1669 = !DIImportedEntity(tag: DW_TAG_imported_declaration, scope: !20, entity: !1670, file: !1561, line: 171)
!1670 = !DISubprogram(name: "wcstombs", scope: !1556, file: !1556, line: 496, type: !1671, isLocal: false, isDefinition: false, flags: DIFlagPrototyped, isOptimized: false)
!1671 = !DISubroutineType(types: !1672)
!1672 = !{!1591, !1202, !1115, !1591}
!1673 = !DIImportedEntity(tag: DW_TAG_imported_declaration, scope: !20, entity: !1674, file: !1561, line: 172)
!1674 = !DISubprogram(name: "wctomb", scope: !1556, file: !1556, line: 494, type: !1675, isLocal: false, isDefinition: false, flags: DIFlagPrototyped, isOptimized: false)
!1675 = !DISubroutineType(types: !1676)
!1676 = !{!12, !279, !1104}
!1677 = !DIImportedEntity(tag: DW_TAG_imported_declaration, scope: !384, entity: !1678, file: !1561, line: 200)
!1678 = !DIDerivedType(tag: DW_TAG_typedef, name: "lldiv_t", file: !1556, line: 699, baseType: !1679)
!1679 = distinct !DICompositeType(tag: DW_TAG_structure_type, file: !1556, line: 699, size: 128, flags: DIFlagTypePassByValue, elements: !1680, identifier: "_ZTS7lldiv_t")
!1680 = !{!1681, !1682}
!1681 = !DIDerivedType(tag: DW_TAG_member, name: "quot", scope: !1679, file: !1556, line: 699, baseType: !1322, size: 64)
!1682 = !DIDerivedType(tag: DW_TAG_member, name: "rem", scope: !1679, file: !1556, line: 699, baseType: !1322, size: 64, offset: 64)
!1683 = !DIImportedEntity(tag: DW_TAG_imported_declaration, scope: !384, entity: !1684, file: !1561, line: 206)
!1684 = !DISubprogram(name: "_Exit", scope: !1556, file: !1556, line: 365, type: !1606, isLocal: false, isDefinition: false, flags: DIFlagPrototyped | DIFlagNoReturn, isOptimized: false)
!1685 = !DIImportedEntity(tag: DW_TAG_imported_declaration, scope: !384, entity: !1686, file: !1561, line: 210)
!1686 = !DISubprogram(name: "llabs", scope: !1556, file: !1556, line: 703, type: !1687, isLocal: false, isDefinition: false, flags: DIFlagPrototyped, isOptimized: false)
!1687 = !DISubroutineType(types: !1688)
!1688 = !{!1322, !1322}
!1689 = !DIImportedEntity(tag: DW_TAG_imported_declaration, scope: !384, entity: !1690, file: !1561, line: 216)
!1690 = !DISubprogram(name: "lldiv", scope: !1556, file: !1556, line: 701, type: !1691, isLocal: false, isDefinition: false, flags: DIFlagPrototyped, isOptimized: false)
!1691 = !DISubroutineType(types: !1692)
!1692 = !{!1678, !1322, !1322}
!1693 = !DIImportedEntity(tag: DW_TAG_imported_declaration, scope: !384, entity: !1694, file: !1561, line: 227)
!1694 = !DISubprogram(name: "atoll", scope: !1556, file: !1556, line: 712, type: !1695, isLocal: false, isDefinition: false, flags: DIFlagPrototyped, isOptimized: false)
!1695 = !DISubroutineType(types: !1696)
!1696 = !{!1322, !223}
!1697 = !DIImportedEntity(tag: DW_TAG_imported_declaration, scope: !384, entity: !1698, file: !1561, line: 228)
!1698 = !DISubprogram(name: "strtoll", scope: !1556, file: !1556, line: 708, type: !1699, isLocal: false, isDefinition: false, flags: DIFlagPrototyped, isOptimized: false)
!1699 = !DISubroutineType(types: !1700)
!1700 = !{!1322, !1139, !1658, !12}
!1701 = !DIImportedEntity(tag: DW_TAG_imported_declaration, scope: !384, entity: !1702, file: !1561, line: 229)
!1702 = !DISubprogram(name: "strtoull", scope: !1556, file: !1556, line: 709, type: !1703, isLocal: false, isDefinition: false, flags: DIFlagPrototyped, isOptimized: false)
!1703 = !DISubroutineType(types: !1704)
!1704 = !{!1327, !1139, !1658, !12}
!1705 = !DIImportedEntity(tag: DW_TAG_imported_declaration, scope: !384, entity: !1706, file: !1561, line: 231)
!1706 = !DISubprogram(name: "strtof", linkageName: "_ZL6strtofPKcPPc", scope: !1556, file: !1556, line: 457, type: !1707, isLocal: true, isDefinition: false, flags: DIFlagPrototyped, isOptimized: false)
!1707 = !DISubroutineType(types: !1708)
!1708 = !{!1260, !1139, !1658}
!1709 = !DIImportedEntity(tag: DW_TAG_imported_declaration, scope: !384, entity: !1710, file: !1561, line: 232)
!1710 = !DISubprogram(name: "strtold", scope: !1556, file: !1556, line: 468, type: !1711, isLocal: false, isDefinition: false, flags: DIFlagPrototyped, isOptimized: false)
!1711 = !DISubroutineType(types: !1712)
!1712 = !{!1317, !1139, !1658}
!1713 = !DIImportedEntity(tag: DW_TAG_imported_declaration, scope: !20, entity: !1678, file: !1561, line: 240)
!1714 = !DIImportedEntity(tag: DW_TAG_imported_declaration, scope: !20, entity: !1684, file: !1561, line: 242)
!1715 = !DIImportedEntity(tag: DW_TAG_imported_declaration, scope: !20, entity: !1686, file: !1561, line: 244)
!1716 = !DIImportedEntity(tag: DW_TAG_imported_declaration, scope: !20, entity: !1717, file: !1561, line: 245)
!1717 = !DISubprogram(name: "div", linkageName: "_ZN9__gnu_cxx3divExx", scope: !384, file: !1561, line: 213, type: !1691, isLocal: false, isDefinition: false, flags: DIFlagPrototyped, isOptimized: false)
!1718 = !DIImportedEntity(tag: DW_TAG_imported_declaration, scope: !20, entity: !1690, file: !1561, line: 246)
!1719 = !DIImportedEntity(tag: DW_TAG_imported_declaration, scope: !20, entity: !1694, file: !1561, line: 248)
!1720 = !DIImportedEntity(tag: DW_TAG_imported_declaration, scope: !20, entity: !1706, file: !1561, line: 249)
!1721 = !DIImportedEntity(tag: DW_TAG_imported_declaration, scope: !20, entity: !1698, file: !1561, line: 250)
!1722 = !DIImportedEntity(tag: DW_TAG_imported_declaration, scope: !20, entity: !1702, file: !1561, line: 251)
!1723 = !DIImportedEntity(tag: DW_TAG_imported_declaration, scope: !20, entity: !1710, file: !1561, line: 252)
!1724 = !DIImportedEntity(tag: DW_TAG_imported_declaration, scope: !20, entity: !1097, file: !1725, line: 98)
!1725 = !DIFile(filename: "C:/Xilinx/2025.1/Vitis/tps/mingw/8.3.0/win64.o/nt\5Clib\5Cgcc\5Cx86_64-w64-mingw32\5C8.3.0\5Cinclude\5Cc++\5Ccstdio", directory: "C:\5CUsers\5Cjackh\5CDownloads\5CMatrix_Lab4\5Creshape")
!1726 = !DIImportedEntity(tag: DW_TAG_imported_declaration, scope: !20, entity: !1727, file: !1725, line: 99)
!1727 = !DIDerivedType(tag: DW_TAG_typedef, name: "fpos_t", file: !1728, line: 104, baseType: !121)
!1728 = !DIFile(filename: "C:/Xilinx/2025.1/Vitis/tps/mingw/8.3.0/win64.o/nt\5Cx86_64-w64-mingw32\5Cinclude\5Cstdio.h", directory: "C:\5CUsers\5Cjackh\5CDownloads\5CMatrix_Lab4\5Creshape")
!1729 = !DIImportedEntity(tag: DW_TAG_imported_declaration, scope: !20, entity: !1730, file: !1725, line: 101)
!1730 = !DISubprogram(name: "clearerr", scope: !1728, file: !1728, line: 578, type: !1731, isLocal: false, isDefinition: false, flags: DIFlagPrototyped, isOptimized: false)
!1731 = !DISubroutineType(types: !1732)
!1732 = !{null, !1096}
!1733 = !DIImportedEntity(tag: DW_TAG_imported_declaration, scope: !20, entity: !1734, file: !1725, line: 102)
!1734 = !DISubprogram(name: "fclose", scope: !1728, file: !1728, line: 579, type: !1735, isLocal: false, isDefinition: false, flags: DIFlagPrototyped, isOptimized: false)
!1735 = !DISubroutineType(types: !1736)
!1736 = !{!12, !1096}
!1737 = !DIImportedEntity(tag: DW_TAG_imported_declaration, scope: !20, entity: !1738, file: !1725, line: 103)
!1738 = !DISubprogram(name: "feof", scope: !1728, file: !1728, line: 586, type: !1735, isLocal: false, isDefinition: false, flags: DIFlagPrototyped, isOptimized: false)
!1739 = !DIImportedEntity(tag: DW_TAG_imported_declaration, scope: !20, entity: !1740, file: !1725, line: 104)
!1740 = !DISubprogram(name: "ferror", scope: !1728, file: !1728, line: 587, type: !1735, isLocal: false, isDefinition: false, flags: DIFlagPrototyped, isOptimized: false)
!1741 = !DIImportedEntity(tag: DW_TAG_imported_declaration, scope: !20, entity: !1742, file: !1725, line: 105)
!1742 = !DISubprogram(name: "fflush", scope: !1728, file: !1728, line: 588, type: !1735, isLocal: false, isDefinition: false, flags: DIFlagPrototyped, isOptimized: false)
!1743 = !DIImportedEntity(tag: DW_TAG_imported_declaration, scope: !20, entity: !1744, file: !1725, line: 106)
!1744 = !DISubprogram(name: "fgetc", scope: !1728, file: !1728, line: 589, type: !1735, isLocal: false, isDefinition: false, flags: DIFlagPrototyped, isOptimized: false)
!1745 = !DIImportedEntity(tag: DW_TAG_imported_declaration, scope: !20, entity: !1746, file: !1725, line: 107)
!1746 = !DISubprogram(name: "fgetpos", scope: !1728, file: !1728, line: 591, type: !1747, isLocal: false, isDefinition: false, flags: DIFlagPrototyped, isOptimized: false)
!1747 = !DISubroutineType(types: !1748)
!1748 = !{!12, !1106, !1749}
!1749 = !DIDerivedType(tag: DW_TAG_restrict_type, baseType: !1750)
!1750 = !DIDerivedType(tag: DW_TAG_pointer_type, baseType: !1727, size: 64)
!1751 = !DIImportedEntity(tag: DW_TAG_imported_declaration, scope: !20, entity: !1752, file: !1725, line: 108)
!1752 = !DISubprogram(name: "fgets", scope: !1728, file: !1728, line: 593, type: !1753, isLocal: false, isDefinition: false, flags: DIFlagPrototyped, isOptimized: false)
!1753 = !DISubroutineType(types: !1754)
!1754 = !{!279, !1202, !12, !1106}
!1755 = !DIImportedEntity(tag: DW_TAG_imported_declaration, scope: !20, entity: !1756, file: !1725, line: 109)
!1756 = !DISubprogram(name: "fopen", scope: !1728, file: !1728, line: 600, type: !1757, isLocal: false, isDefinition: false, flags: DIFlagPrototyped, isOptimized: false)
!1757 = !DISubroutineType(types: !1758)
!1758 = !{!1096, !1139, !1139}
!1759 = !DIImportedEntity(tag: DW_TAG_imported_declaration, scope: !20, entity: !1760, file: !1725, line: 110)
!1760 = !DISubprogram(name: "fprintf", linkageName: "_ZL7fprintfP6_iobufPKcz", scope: !1728, file: !1728, line: 334, type: !1761, isLocal: true, isDefinition: false, flags: DIFlagPrototyped, isOptimized: false)
!1761 = !DISubroutineType(types: !1762)
!1762 = !{!12, !1096, !223, null}
!1763 = !DIImportedEntity(tag: DW_TAG_imported_declaration, scope: !20, entity: !1764, file: !1725, line: 111)
!1764 = !DISubprogram(name: "fputc", scope: !1728, file: !1728, line: 602, type: !1765, isLocal: false, isDefinition: false, flags: DIFlagPrototyped, isOptimized: false)
!1765 = !DISubroutineType(types: !1766)
!1766 = !{!12, !12, !1096}
!1767 = !DIImportedEntity(tag: DW_TAG_imported_declaration, scope: !20, entity: !1768, file: !1725, line: 112)
!1768 = !DISubprogram(name: "fputs", scope: !1728, file: !1728, line: 604, type: !1769, isLocal: false, isDefinition: false, flags: DIFlagPrototyped, isOptimized: false)
!1769 = !DISubroutineType(types: !1770)
!1770 = !{!12, !1139, !1106}
!1771 = !DIImportedEntity(tag: DW_TAG_imported_declaration, scope: !20, entity: !1772, file: !1725, line: 113)
!1772 = !DISubprogram(name: "fread", scope: !1728, file: !1728, line: 605, type: !1773, isLocal: false, isDefinition: false, flags: DIFlagPrototyped, isOptimized: false)
!1773 = !DISubroutineType(types: !1774)
!1774 = !{!1591, !1775, !1591, !1591, !1106}
!1775 = !DIDerivedType(tag: DW_TAG_restrict_type, baseType: !155)
!1776 = !DIImportedEntity(tag: DW_TAG_imported_declaration, scope: !20, entity: !1777, file: !1725, line: 114)
!1777 = !DISubprogram(name: "freopen", scope: !1728, file: !1728, line: 606, type: !1778, isLocal: false, isDefinition: false, flags: DIFlagPrototyped, isOptimized: false)
!1778 = !DISubroutineType(types: !1779)
!1779 = !{!1096, !1139, !1139, !1106}
!1780 = !DIImportedEntity(tag: DW_TAG_imported_declaration, scope: !20, entity: !1781, file: !1725, line: 115)
!1781 = !DISubprogram(name: "fscanf", linkageName: "_ZL6fscanfP6_iobufPKcz", scope: !1728, file: !1728, line: 289, type: !1761, isLocal: true, isDefinition: false, flags: DIFlagPrototyped, isOptimized: false)
!1782 = !DIImportedEntity(tag: DW_TAG_imported_declaration, scope: !20, entity: !1783, file: !1725, line: 116)
!1783 = !DISubprogram(name: "fseek", scope: !1728, file: !1728, line: 609, type: !1784, isLocal: false, isDefinition: false, flags: DIFlagPrototyped, isOptimized: false)
!1784 = !DISubroutineType(types: !1785)
!1785 = !{!12, !1096, !121, !12}
!1786 = !DIImportedEntity(tag: DW_TAG_imported_declaration, scope: !20, entity: !1787, file: !1725, line: 117)
!1787 = !DISubprogram(name: "fsetpos", scope: !1728, file: !1728, line: 607, type: !1788, isLocal: false, isDefinition: false, flags: DIFlagPrototyped, isOptimized: false)
!1788 = !DISubroutineType(types: !1789)
!1789 = !{!12, !1096, !1790}
!1790 = !DIDerivedType(tag: DW_TAG_pointer_type, baseType: !1791, size: 64)
!1791 = !DIDerivedType(tag: DW_TAG_const_type, baseType: !1727)
!1792 = !DIImportedEntity(tag: DW_TAG_imported_declaration, scope: !20, entity: !1793, file: !1725, line: 118)
!1793 = !DISubprogram(name: "ftell", scope: !1728, file: !1728, line: 610, type: !1794, isLocal: false, isDefinition: false, flags: DIFlagPrototyped, isOptimized: false)
!1794 = !DISubroutineType(types: !1795)
!1795 = !{!121, !1096}
!1796 = !DIImportedEntity(tag: DW_TAG_imported_declaration, scope: !20, entity: !1797, file: !1725, line: 119)
!1797 = !DISubprogram(name: "fwrite", scope: !1728, file: !1728, line: 654, type: !1798, isLocal: false, isDefinition: false, flags: DIFlagPrototyped, isOptimized: false)
!1798 = !DISubroutineType(types: !1799)
!1799 = !{!1591, !1800, !1591, !1591, !1106}
!1800 = !DIDerivedType(tag: DW_TAG_restrict_type, baseType: !432)
!1801 = !DIImportedEntity(tag: DW_TAG_imported_declaration, scope: !20, entity: !1802, file: !1725, line: 120)
!1802 = !DISubprogram(name: "getc", scope: !1728, file: !1728, line: 655, type: !1735, isLocal: false, isDefinition: false, flags: DIFlagPrototyped, isOptimized: false)
!1803 = !DIImportedEntity(tag: DW_TAG_imported_declaration, scope: !20, entity: !1804, file: !1725, line: 121)
!1804 = !DISubprogram(name: "getchar", scope: !1728, file: !1728, line: 656, type: !75, isLocal: false, isDefinition: false, flags: DIFlagPrototyped, isOptimized: false)
!1805 = !DIImportedEntity(tag: DW_TAG_imported_declaration, scope: !20, entity: !1806, file: !1725, line: 126)
!1806 = !DISubprogram(name: "perror", scope: !1728, file: !1728, line: 662, type: !1807, isLocal: false, isDefinition: false, flags: DIFlagPrototyped, isOptimized: false)
!1807 = !DISubroutineType(types: !1808)
!1808 = !{null, !223}
!1809 = !DIImportedEntity(tag: DW_TAG_imported_declaration, scope: !20, entity: !1810, file: !1725, line: 127)
!1810 = !DISubprogram(name: "printf", linkageName: "_ZL6printfPKcz", scope: !1728, file: !1728, line: 345, type: !1811, isLocal: true, isDefinition: false, flags: DIFlagPrototyped, isOptimized: false)
!1811 = !DISubroutineType(types: !1812)
!1812 = !{!12, !223, null}
!1813 = !DIImportedEntity(tag: DW_TAG_imported_declaration, scope: !20, entity: !1814, file: !1725, line: 128)
!1814 = !DISubprogram(name: "putc", scope: !1728, file: !1728, line: 670, type: !1765, isLocal: false, isDefinition: false, flags: DIFlagPrototyped, isOptimized: false)
!1815 = !DIImportedEntity(tag: DW_TAG_imported_declaration, scope: !20, entity: !1816, file: !1725, line: 129)
!1816 = !DISubprogram(name: "putchar", scope: !1728, file: !1728, line: 671, type: !1523, isLocal: false, isDefinition: false, flags: DIFlagPrototyped, isOptimized: false)
!1817 = !DIImportedEntity(tag: DW_TAG_imported_declaration, scope: !20, entity: !1818, file: !1725, line: 130)
!1818 = !DISubprogram(name: "puts", scope: !1728, file: !1728, line: 672, type: !1581, isLocal: false, isDefinition: false, flags: DIFlagPrototyped, isOptimized: false)
!1819 = !DIImportedEntity(tag: DW_TAG_imported_declaration, scope: !20, entity: !1820, file: !1725, line: 131)
!1820 = !DISubprogram(name: "remove", scope: !1728, file: !1728, line: 676, type: !1581, isLocal: false, isDefinition: false, flags: DIFlagPrototyped, isOptimized: false)
!1821 = !DIImportedEntity(tag: DW_TAG_imported_declaration, scope: !20, entity: !1822, file: !1725, line: 132)
!1822 = !DISubprogram(name: "rename", scope: !1728, file: !1728, line: 677, type: !1823, isLocal: false, isDefinition: false, flags: DIFlagPrototyped, isOptimized: false)
!1823 = !DISubroutineType(types: !1824)
!1824 = !{!12, !223, !223}
!1825 = !DIImportedEntity(tag: DW_TAG_imported_declaration, scope: !20, entity: !1826, file: !1725, line: 133)
!1826 = !DISubprogram(name: "rewind", scope: !1728, file: !1728, line: 683, type: !1731, isLocal: false, isDefinition: false, flags: DIFlagPrototyped, isOptimized: false)
!1827 = !DIImportedEntity(tag: DW_TAG_imported_declaration, scope: !20, entity: !1828, file: !1725, line: 134)
!1828 = !DISubprogram(name: "scanf", linkageName: "_ZL5scanfPKcz", scope: !1728, file: !1728, line: 278, type: !1811, isLocal: true, isDefinition: false, flags: DIFlagPrototyped, isOptimized: false)
!1829 = !DIImportedEntity(tag: DW_TAG_imported_declaration, scope: !20, entity: !1830, file: !1725, line: 135)
!1830 = !DISubprogram(name: "setbuf", scope: !1728, file: !1728, line: 685, type: !1831, isLocal: false, isDefinition: false, flags: DIFlagPrototyped, isOptimized: false)
!1831 = !DISubroutineType(types: !1832)
!1832 = !{null, !1106, !1202}
!1833 = !DIImportedEntity(tag: DW_TAG_imported_declaration, scope: !20, entity: !1834, file: !1725, line: 136)
!1834 = !DISubprogram(name: "setvbuf", scope: !1728, file: !1728, line: 689, type: !1835, isLocal: false, isDefinition: false, flags: DIFlagPrototyped, isOptimized: false)
!1835 = !DISubroutineType(types: !1836)
!1836 = !{!12, !1106, !1202, !12, !1591}
!1837 = !DIImportedEntity(tag: DW_TAG_imported_declaration, scope: !20, entity: !1838, file: !1725, line: 137)
!1838 = !DISubprogram(name: "sprintf", linkageName: "_ZL7sprintfPcPKcz", scope: !1728, file: !1728, line: 356, type: !1839, isLocal: true, isDefinition: false, flags: DIFlagPrototyped, isOptimized: false)
!1839 = !DISubroutineType(types: !1840)
!1840 = !{!12, !279, !223, null}
!1841 = !DIImportedEntity(tag: DW_TAG_imported_declaration, scope: !20, entity: !1842, file: !1725, line: 138)
!1842 = !DISubprogram(name: "sscanf", linkageName: "_ZL6sscanfPKcS0_z", scope: !1728, file: !1728, line: 267, type: !1843, isLocal: true, isDefinition: false, flags: DIFlagPrototyped, isOptimized: false)
!1843 = !DISubroutineType(types: !1844)
!1844 = !{!12, !223, !223, null}
!1845 = !DIImportedEntity(tag: DW_TAG_imported_declaration, scope: !20, entity: !1846, file: !1725, line: 139)
!1846 = !DISubprogram(name: "tmpfile", scope: !1728, file: !1728, line: 715, type: !1847, isLocal: false, isDefinition: false, flags: DIFlagPrototyped, isOptimized: false)
!1847 = !DISubroutineType(types: !1848)
!1848 = !{!1096}
!1849 = !DIImportedEntity(tag: DW_TAG_imported_declaration, scope: !20, entity: !1850, file: !1725, line: 141)
!1850 = !DISubprogram(name: "tmpnam", scope: !1728, file: !1728, line: 716, type: !1851, isLocal: false, isDefinition: false, flags: DIFlagPrototyped, isOptimized: false)
!1851 = !DISubroutineType(types: !1852)
!1852 = !{!279, !279}
!1853 = !DIImportedEntity(tag: DW_TAG_imported_declaration, scope: !20, entity: !1854, file: !1725, line: 143)
!1854 = !DISubprogram(name: "ungetc", scope: !1728, file: !1728, line: 717, type: !1765, isLocal: false, isDefinition: false, flags: DIFlagPrototyped, isOptimized: false)
!1855 = !DIImportedEntity(tag: DW_TAG_imported_declaration, scope: !20, entity: !1856, file: !1725, line: 144)
!1856 = !DISubprogram(name: "vfprintf", linkageName: "_ZL8vfprintfP6_iobufPKcPv", scope: !1728, file: !1728, line: 367, type: !1857, isLocal: true, isDefinition: false, flags: DIFlagPrototyped, isOptimized: false)
!1857 = !DISubroutineType(types: !1858)
!1858 = !{!12, !1096, !223, !1181}
!1859 = !DIImportedEntity(tag: DW_TAG_imported_declaration, scope: !20, entity: !1860, file: !1725, line: 145)
!1860 = !DISubprogram(name: "vprintf", linkageName: "_ZL7vprintfPKcPv", scope: !1728, file: !1728, line: 374, type: !1861, isLocal: true, isDefinition: false, flags: DIFlagPrototyped, isOptimized: false)
!1861 = !DISubroutineType(types: !1862)
!1862 = !{!12, !223, !1181}
!1863 = !DIImportedEntity(tag: DW_TAG_imported_declaration, scope: !20, entity: !1864, file: !1725, line: 146)
!1864 = !DISubprogram(name: "vsprintf", linkageName: "_ZL8vsprintfPcPKcPv", scope: !1728, file: !1728, line: 381, type: !1865, isLocal: true, isDefinition: false, flags: DIFlagPrototyped, isOptimized: false)
!1865 = !DISubroutineType(types: !1866)
!1866 = !{!12, !279, !223, !1181}
!1867 = !DIImportedEntity(tag: DW_TAG_imported_declaration, scope: !384, entity: !1868, file: !1725, line: 175)
!1868 = !DISubprogram(name: "snprintf", linkageName: "_ZL8snprintfPcmPKcz", scope: !1728, file: !1728, line: 388, type: !1869, isLocal: true, isDefinition: false, flags: DIFlagPrototyped, isOptimized: false)
!1869 = !DISubroutineType(types: !1870)
!1870 = !{!12, !279, !1591, !223, null}
!1871 = !DIImportedEntity(tag: DW_TAG_imported_declaration, scope: !384, entity: !1872, file: !1725, line: 176)
!1872 = !DISubprogram(name: "vfscanf", linkageName: "_ZL7vfscanfP6_iobufPKcPv", scope: !1728, file: !1728, line: 320, type: !1857, isLocal: true, isDefinition: false, flags: DIFlagPrototyped, isOptimized: false)
!1873 = !DIImportedEntity(tag: DW_TAG_imported_declaration, scope: !384, entity: !1874, file: !1725, line: 177)
!1874 = !DISubprogram(name: "vscanf", linkageName: "_ZL6vscanfPKcPv", scope: !1728, file: !1728, line: 313, type: !1861, isLocal: true, isDefinition: false, flags: DIFlagPrototyped, isOptimized: false)
!1875 = !DIImportedEntity(tag: DW_TAG_imported_declaration, scope: !384, entity: !1876, file: !1725, line: 178)
!1876 = !DISubprogram(name: "vsnprintf", linkageName: "_ZL9vsnprintfPcmPKcPv", scope: !1728, file: !1728, line: 399, type: !1877, isLocal: true, isDefinition: false, flags: DIFlagPrototyped, isOptimized: false)
!1877 = !DISubroutineType(types: !1878)
!1878 = !{!12, !279, !1591, !223, !1181}
!1879 = !DIImportedEntity(tag: DW_TAG_imported_declaration, scope: !384, entity: !1880, file: !1725, line: 179)
!1880 = !DISubprogram(name: "vsscanf", linkageName: "_ZL7vsscanfPKcS0_Pv", scope: !1728, file: !1728, line: 306, type: !1881, isLocal: true, isDefinition: false, flags: DIFlagPrototyped, isOptimized: false)
!1881 = !DISubroutineType(types: !1882)
!1882 = !{!12, !223, !223, !1181}
!1883 = !DIImportedEntity(tag: DW_TAG_imported_declaration, scope: !20, entity: !1868, file: !1725, line: 185)
!1884 = !DIImportedEntity(tag: DW_TAG_imported_declaration, scope: !20, entity: !1872, file: !1725, line: 186)
!1885 = !DIImportedEntity(tag: DW_TAG_imported_declaration, scope: !20, entity: !1874, file: !1725, line: 187)
!1886 = !DIImportedEntity(tag: DW_TAG_imported_declaration, scope: !20, entity: !1876, file: !1725, line: 188)
!1887 = !DIImportedEntity(tag: DW_TAG_imported_declaration, scope: !20, entity: !1880, file: !1725, line: 189)
!1888 = !DIImportedEntity(tag: DW_TAG_imported_declaration, scope: !20, entity: !1889, file: !1891, line: 82)
!1889 = !DIDerivedType(tag: DW_TAG_typedef, name: "wctrans_t", file: !1890, line: 174, baseType: !1104)
!1890 = !DIFile(filename: "C:/Xilinx/2025.1/Vitis/tps/mingw/8.3.0/win64.o/nt\5Cx86_64-w64-mingw32\5Cinclude\5Cwctype.h", directory: "C:\5CUsers\5Cjackh\5CDownloads\5CMatrix_Lab4\5Creshape")
!1891 = !DIFile(filename: "C:/Xilinx/2025.1/Vitis/tps/mingw/8.3.0/win64.o/nt\5Clib\5Cgcc\5Cx86_64-w64-mingw32\5C8.3.0\5Cinclude\5Cc++\5Ccwctype", directory: "C:\5CUsers\5Cjackh\5CDownloads\5CMatrix_Lab4\5Creshape")
!1892 = !DIImportedEntity(tag: DW_TAG_imported_declaration, scope: !20, entity: !1893, file: !1891, line: 83)
!1893 = !DIDerivedType(tag: DW_TAG_typedef, name: "wctype_t", file: !1086, line: 107, baseType: !1087)
!1894 = !DIImportedEntity(tag: DW_TAG_imported_declaration, scope: !20, entity: !1085, file: !1891, line: 84)
!1895 = !DIImportedEntity(tag: DW_TAG_imported_declaration, scope: !20, entity: !1896, file: !1891, line: 86)
!1896 = !DISubprogram(name: "iswalnum", scope: !1082, file: !1082, line: 276, type: !1277, isLocal: false, isDefinition: false, flags: DIFlagPrototyped, isOptimized: false)
!1897 = !DIImportedEntity(tag: DW_TAG_imported_declaration, scope: !20, entity: !1898, file: !1891, line: 87)
!1898 = !DISubprogram(name: "iswalpha", scope: !1082, file: !1082, line: 262, type: !1277, isLocal: false, isDefinition: false, flags: DIFlagPrototyped, isOptimized: false)
!1899 = !DIImportedEntity(tag: DW_TAG_imported_declaration, scope: !20, entity: !1900, file: !1891, line: 89)
